
SPI_LCD.elf:     file format elf32-littleriscv
SPI_LCD.elf
architecture: riscv:rv32, flags 0x00000112:
EXEC_P, HAS_SYMS, D_PAGED
start address 0x00000000

Program Header:
    LOAD off    0x00001000 vaddr 0x00000000 paddr 0x00000000 align 2**12
         filesz 0x00003e74 memsz 0x00003e74 flags r-x
    LOAD off    0x00005000 vaddr 0x20000000 paddr 0x00003e74 align 2**12
         filesz 0x00000098 memsz 0x000000b4 flags rw-
    LOAD off    0x00005800 vaddr 0x20004800 paddr 0x20004800 align 2**12
         filesz 0x00000000 memsz 0x00000800 flags rw-

Sections:
Idx Name          Size      VMA       LMA       File off  Algn
  0 .init         00000004  00000000  00000000  00001000  2**1
                  CONTENTS, ALLOC, LOAD, READONLY, CODE
  1 .vector       000000fc  00000004  00000004  00001004  2**1
                  CONTENTS, ALLOC, LOAD, READONLY, CODE
  2 .text         00003d74  00000100  00000100  00001100  2**2
                  CONTENTS, ALLOC, LOAD, READONLY, CODE
  3 .fini         00000000  00003e74  00003e74  00005098  2**0
                  CONTENTS, ALLOC, LOAD, CODE
  4 .dalign       00000000  20000000  20000000  00005098  2**0
                  CONTENTS
  5 .dlalign      00000000  00003e74  00003e74  00005098  2**0
                  CONTENTS
  6 .data         00000098  20000000  00003e74  00005000  2**2
                  CONTENTS, ALLOC, LOAD, DATA
  7 .bss          0000001c  20000098  00003f0c  00005098  2**2
                  ALLOC
  8 .stack        00000800  20004800  20004800  00005800  2**0
                  ALLOC
  9 .debug_info   0000da46  00000000  00000000  00005098  2**0
                  CONTENTS, READONLY, DEBUGGING
 10 .debug_abbrev 00002008  00000000  00000000  00012ade  2**0
                  CONTENTS, READONLY, DEBUGGING
 11 .debug_aranges 00000678  00000000  00000000  00014ae8  2**3
                  CONTENTS, READONLY, DEBUGGING
 12 .debug_ranges 00000a18  00000000  00000000  00015160  2**3
                  CONTENTS, READONLY, DEBUGGING
 13 .debug_line   00009e99  00000000  00000000  00015b78  2**0
                  CONTENTS, READONLY, DEBUGGING
 14 .debug_str    0000205f  00000000  00000000  0001fa11  2**0
                  CONTENTS, READONLY, DEBUGGING
 15 .comment      00000033  00000000  00000000  00021a70  2**0
                  CONTENTS, READONLY
 16 .debug_frame  00001d18  00000000  00000000  00021aa4  2**2
                  CONTENTS, READONLY, DEBUGGING
 17 .debug_loc    00004857  00000000  00000000  000237bc  2**0
                  CONTENTS, READONLY, DEBUGGING
 18 .stab         00000084  00000000  00000000  00028014  2**2
                  CONTENTS, READONLY, DEBUGGING
 19 .stabstr      00000117  00000000  00000000  00028098  2**0
                  CONTENTS, READONLY, DEBUGGING
SYMBOL TABLE:
00000000 l    d  .init	00000000 .init
00000004 l    d  .vector	00000000 .vector
00000100 l    d  .text	00000000 .text
00003e74 l    d  .fini	00000000 .fini
20000000 l    d  .dalign	00000000 .dalign
00003e74 l    d  .dlalign	00000000 .dlalign
20000000 l    d  .data	00000000 .data
20000098 l    d  .bss	00000000 .bss
20004800 l    d  .stack	00000000 .stack
00000000 l    d  .debug_info	00000000 .debug_info
00000000 l    d  .debug_abbrev	00000000 .debug_abbrev
00000000 l    d  .debug_aranges	00000000 .debug_aranges
00000000 l    d  .debug_ranges	00000000 .debug_ranges
00000000 l    d  .debug_line	00000000 .debug_line
00000000 l    d  .debug_str	00000000 .debug_str
00000000 l    d  .comment	00000000 .comment
00000000 l    d  .debug_frame	00000000 .debug_frame
00000000 l    d  .debug_loc	00000000 .debug_loc
00000000 l    d  .stab	00000000 .stab
00000000 l    d  .stabstr	00000000 .stabstr
00000000 l    df *ABS*	00000000 ./Startup/startup_ch32v20x_D6.o
00000004 l       .vector	00000000 _vector_base
00000000 l    df *ABS*	00000000 ch32v20x_it.c
00000000 l    df *ABS*	00000000 main.c
00000000 l    df *ABS*	00000000 system_ch32v20x.c
00000000 l    df *ABS*	00000000 ch32v20x_gpio.c
00000000 l    df *ABS*	00000000 ch32v20x_rcc.c
20000010 l     O .data	00000010 APBAHBPrescTable
20000084 l     O .data	00000004 ADCPrescTable
00000000 l    df *ABS*	00000000 ch32v20x_spi.c
00000000 l    df *ABS*	00000000 ch32v20x_usart.c
00000000 l    df *ABS*	00000000 lcd.c
00000740 l     F .text	00000018 LCD_1IN47_SendCommand
00000758 l     F .text	00000012 LCD_1IN47_SendData_8Bit
0000076a l     F .text	0000002a LCD_1IN47_SendData_16Bit
00000000 l    df *ABS*	00000000 spi.c
00000000 l    df *ABS*	00000000 debug.c
200000a2 l     O .bss	00000002 p_ms
200000a4 l     O .bss	00000001 p_us
20000088 l     O .data	00000004 curbrk.4672
00000000 l    df *ABS*	00000000 muldf3.c
00000000 l    df *ABS*	00000000 subdf3.c
00000000 l    df *ABS*	00000000 addsf3.c
00000000 l    df *ABS*	00000000 divsf3.c
00000000 l    df *ABS*	00000000 lesf2.c
00000000 l    df *ABS*	00000000 mulsf3.c
00000000 l    df *ABS*	00000000 subsf3.c
00000000 l    df *ABS*	00000000 fixunssfsi.c
00000000 l    df *ABS*	00000000 floatsisf.c
00000000 l    df *ABS*	00000000 extendsfdf2.c
00000000 l    df *ABS*	00000000 truncdfsf2.c
00000000 l    df *ABS*	00000000 libgcc2.c
00000000 l    df *ABS*	00000000 printf.c
00000000 l    df *ABS*	00000000 findfp.c
00002b1a l     F .text	00000066 std
00000000 l    df *ABS*	00000000 fwalk.c
00000000 l    df *ABS*	00000000 nano-mallocr.c
00000000 l    df *ABS*	00000000 nano-mallocr.c
00000000 l    df *ABS*	00000000 nano-vfprintf.c
00002eb8 l     F .text	00000026 __sfputc_r
00000000 l    df *ABS*	00000000 nano-vfprintf_i.c
00000000 l    df *ABS*	00000000 sbrkr.c
00000000 l    df *ABS*	00000000 stdio.c
00000000 l    df *ABS*	00000000 wbuf.c
00000000 l    df *ABS*	00000000 writer.c
00000000 l    df *ABS*	00000000 wsetup.c
00000000 l    df *ABS*	00000000 closer.c
00000000 l    df *ABS*	00000000 fflush.c
00000000 l    df *ABS*	00000000 lseekr.c
00000000 l    df *ABS*	00000000 makebuf.c
00000000 l    df *ABS*	00000000 memchr.c
00000000 l    df *ABS*	00000000 mlock.c
00000000 l    df *ABS*	00000000 readr.c
00000000 l    df *ABS*	00000000 fstatr.c
00000000 l    df *ABS*	00000000 isattyr.c
00000000 l    df *ABS*	00000000 close.c
00000000 l    df *ABS*	00000000 fstat.c
00000000 l    df *ABS*	00000000 isatty.c
00000000 l    df *ABS*	00000000 lseek.c
00000000 l    df *ABS*	00000000 read.c
00000000 l    df *ABS*	00000000 libgcc2.c
00000000 l    df *ABS*	00000000 impure.c
20000020 l     O .data	00000060 impure_data
00000000 l    df *ABS*	00000000 reent.c
000003d0  w      .text	00000000 EXTI2_IRQHandler
00000b8e g     F .text	0000010e Draw_Solid_Heart
00003b58 g     F .text	00000028 _isatty_r
000039d4 g     F .text	0000002c _lseek_r
00000d32 g     F .text	00000032 SPI1_Write
00002adc g     F .text	0000003e printf
20000880 g       .data	00000000 __global_pointer$
00000108 g     F .text	00000028 .hidden __riscv_save_8
000003d0  w      .text	00000000 TIM1_CC_IRQHandler
000035f2 g     F .text	00000030 __sseek
00002bd0 g     F .text	00000066 __sinit
0000067e g     F .text	00000004 SPI_I2S_SendData
00003628 g     F .text	000000be __swbuf_r
0000020a g     F .text	00000010 HardFault_Handler
00002b8a g     F .text	00000046 __sfmoreglue
00003b00 g     F .text	00000002 __malloc_unlock
000007fe g     F .text	000000bc Color_Interpolate
00000154 g     F .text	0000000c .hidden __riscv_restore_3
00001de2 g     F .text	000002b2 .hidden __divsf3
000003d0  w      .text	00000000 SysTick_Handler
000003d0  w      .text	00000000 PVD_IRQHandler
00000140 g     F .text	00000020 .hidden __riscv_restore_10
00000208 g     F .text	00000002 NMI_Handler
000003d0  w      .text	00000000 EXTI3_IRQHandler
00000108 g     F .text	00000028 .hidden __riscv_save_11
00000736 g     F .text	0000000a USART_GetFlagStatus
00003b2e g     F .text	0000002a _fstat_r
200000b0 g     O .bss	00000004 errno
2000009c g     O .bss	00000006 LCD_1IN47
20000098 g       .bss	00000000 _sbss
00000800 g       *ABS*	00000000 __stack_size
00000dc4 g     F .text	0000005a USART_Printf_Init
000023b4 g     F .text	00000388 .hidden __subsf3
000003d0  w      .text	00000000 USBFS_IRQHandler
00000154 g     F .text	0000000c .hidden __riscv_restore_2
00002b80 g     F .text	0000000a _cleanup_r
000003d0  w      .text	00000000 EXTI0_IRQHandler
000003d0  w      .text	00000000 I2C2_EV_IRQHandler
20000080 g     O .data	00000004 SystemCoreClock
00003b8c g     F .text	0000000c _fstat
00000004 g       .init	00000000 _einit
00002094 g     F .text	0000008c .hidden __lesf2
00000608 g     F .text	0000001e RCC_APB2PeriphClockCmd
00000100 g     F .text	00000030 .hidden __riscv_save_12
000003d0  w      .text	00000000 ADC1_2_IRQHandler
00000458 g     F .text	000000f2 GPIO_Init
000003d0  w      .text	00000000 Break_Point_Handler
00000140 g     F .text	00000020 .hidden __riscv_restore_11
000003d0  w      .text	00000000 SPI1_IRQHandler
00000718 g     F .text	00000016 USART_Cmd
00003554 g     F .text	0000002a _sbrk_r
00000130 g     F .text	0000000c .hidden __riscv_save_1
000003d0  w      .text	00000000 TAMPER_IRQHandler
00000154 g     F .text	0000000c .hidden __riscv_restore_0
00003b02 g     F .text	0000002c _read_r
00000116 g     F .text	0000001a .hidden __riscv_save_7
00002858 g     F .text	000000ac .hidden __extendsfdf2
000003d0  w      .text	00000000 Ecall_M_Mode_Handler
20004800 g       .stack	00000000 _heap_end
00003b98 g     F .text	0000000c _isatty
20000090 g     O .data	00000004 _global_impure_ptr
0000014a g     F .text	00000016 .hidden __riscv_restore_5
00000682 g     F .text	0000000a SPI_I2S_GetFlagStatus
000003d0  w      .text	00000000 DMA1_Channel4_IRQHandler
00000e5c g     F .text	00000026 _sbrk
0000014a g     F .text	00000016 .hidden __riscv_restore_6
000003d0  w      .text	00000000 USART3_IRQHandler
000003d0  w      .text	00000000 RTC_IRQHandler
200000b4 g       .bss	00000000 _ebss
000003d0  w      .text	00000000 DMA1_Channel7_IRQHandler
000003d0  w      .text	00000000 CAN1_RX1_IRQHandler
00000d64 g     F .text	0000002a Delay_Init
000003d0  w      .text	00000000 TIM4_IRQHandler
00000108 g     F .text	00000028 .hidden __riscv_save_9
00003dd8 g     O .text	00000020 __sf_fake_stderr
00000116 g     F .text	0000001a .hidden __riscv_save_4
000003d0  w      .text	00000000 I2C1_EV_IRQHandler
0000054a g     F .text	000000be RCC_GetClocksFreq
000003d0  w      .text	00000000 DMA1_Channel6_IRQHandler
00002a6e g     F .text	0000006e .hidden __clzsi2
00002ede g     F .text	00000040 __sfputs_r
000003d0  w      .text	00000000 UART4_IRQHandler
00003ae6 g     F .text	00000018 memchr
0000068c g     F .text	0000008c USART_Init
00002d3c g     F .text	000000a8 _free_r
000003d0  w      .text	00000000 TIM3_IRQHandler
000003d0  w      .text	00000000 RCC_IRQHandler
00000130 g     F .text	0000000c .hidden __riscv_save_3
000003d0  w      .text	00000000 TIM1_TRG_COM_IRQHandler
000003d0  w      .text	00000000 DMA1_Channel1_IRQHandler
00000000 g       .init	00000000 _start
20000000 g     O .data	00000010 AHBPrescTable
00000a78 g     F .text	000000ce LCD_1IN47_SetWindows
00003ba4 g     F .text	0000000c _lseek
00002792 g     F .text	000000c6 .hidden __floatsisf
000003d0  w      .text	00000000 EXTI15_10_IRQHandler
000003d0  w      .text	00000000 DMA1_Channel8_IRQHandler
00003814 g     F .text	00000028 _close_r
20000000 g       .dalign	00000000 _data_vma
20000098 g     O .bss	00000001 MCU_Version
00003714 g     F .text	00000100 __swsetup_r
000003d0  w      .text	00000000 EXTI9_5_IRQHandler
00002c36 g     F .text	0000009c __sfp
00000e82 g     F .text	000004b8 .hidden __muldf3
00000108 g     F .text	00000028 .hidden __riscv_save_10
0000357e g     F .text	0000002c __sread
00003afe g     F .text	00000002 __malloc_lock
0000014a g     F .text	00000016 .hidden __riscv_restore_4
00000140 g     F .text	00000020 .hidden __riscv_restore_8
0000396e g     F .text	00000066 _fflush_r
00000116 g     F .text	0000001a .hidden __riscv_save_6
000003d0  w      .text	00000000 SPI2_IRQHandler
00003df8 g     O .text	00000020 __sf_fake_stdin
00000160 g     F .text	000000a8 memset
00000140 g     F .text	00000020 .hidden __riscv_restore_9
0000014a g     F .text	00000016 .hidden __riscv_restore_7
0000021a g     F .text	0000003a main
00002094 g     F .text	0000008c .hidden __ltsf2
00003622 g     F .text	00000006 __sclose
00002904 g     F .text	0000016a .hidden __truncdfsf2
00002de4 g     F .text	000000d4 _malloc_r
000003d0  w      .text	00000000 DMA1_Channel5_IRQHandler
000003d0  w      .text	00000000 EXTI4_IRQHandler
00000d8e g     F .text	00000036 Delay_Ms
000003d0  w      .text	00000000 USB_LP_CAN1_RX0_IRQHandler
00002120 g     F .text	00000294 .hidden __mulsf3
00000664 g     F .text	0000001a SPI_Cmd
00000254 g     F .text	000000ea SystemInit
00002adc g     F .text	0000003e iprintf
000003d0  w      .text	00000000 USB_HP_CAN1_TX_IRQHandler
00003cd8 g     O .text	00000100 .hidden __clz_tab
00000000 g       .init	00000000 _sinit
000036e6 g     F .text	0000002e _write_r
000003d0  w      .text	00000000 DMA1_Channel3_IRQHandler
000031a8 g     F .text	0000010c _printf_common
2000008c g     O .data	00000004 _impure_ptr
000003d0  w      .text	00000000 TIM1_UP_IRQHandler
0000383c g     F .text	00000132 __sflush_r
000003d0  w      .text	00000000 WWDG_IRQHandler
000003d0  w      .text	00000000 Ecall_U_Mode_Handler
000003d0  w      .text	00000000 TIM2_IRQHandler
20005000 g       .stack	00000000 _eusrstack
00000130 g     F .text	0000000c .hidden __riscv_save_2
000003d0  w      .text	00000000 SW_Handler
00000b46 g     F .text	00000048 LCD_1IN47_Clear
000003d0  w      .text	00000000 TIM1_BRK_IRQHandler
00003a00 g     F .text	00000056 __swhatbuf_r
0000072e g     F .text	00000008 USART_SendData
000003d0  w      .text	00000000 EXTI1_IRQHandler
00000116 g     F .text	0000001a .hidden __riscv_save_5
00000e1e g     F .text	0000003e _write
20000098 g       .data	00000000 _edata
00000c9c g     F .text	00000096 SPI1_Init
200000b4 g       .bss	00000000 _end
000003d0  w      .text	00000000 RTCAlarm_IRQHandler
00003e74 g       .dlalign	00000000 _data_lma
000003d0  w      .text	00000000 USART2_IRQHandler
000035aa g     F .text	00000048 __swrite
00002f1e g     F .text	0000028a _vfiprintf_r
000008ba g     F .text	000001be LCD_1IN47_Init
00002cd2 g     F .text	0000006a _fwalk_reent
0000033e g     F .text	00000092 SystemCoreClockUpdate
000003d0  w      .text	00000000 I2C2_ER_IRQHandler
000003d0  w      .text	00000000 DMA1_Channel2_IRQHandler
00003e18 g     O .text	00000020 __sf_fake_stdout
0000013c g     F .text	00000024 .hidden __riscv_restore_12
00003bb0 g     F .text	0000000c _read
000003d2  w      .text	00000000 handle_reset
000003d0  w      .text	00000000 CAN1_SCE_IRQHandler
0000273c g     F .text	00000056 .hidden __fixunssfsi
000003d0  w      .text	00000000 FLASH_IRQHandler
00000130 g     F .text	0000000c .hidden __riscv_save_0
000003d0  w      .text	00000000 USBFSWakeUp_IRQHandler
000003d0  w      .text	00000000 USART1_IRQHandler
00003a56 g     F .text	00000090 __smakebuf_r
000032b4 g     F .text	000002a0 _printf_i
200000ac g     O .bss	00000004 __malloc_sbrk_start
000003d0  w      .text	00000000 I2C1_ER_IRQHandler
00000626 g     F .text	0000003e SPI_Init
200000a8 g     O .bss	00000004 __malloc_free_list
00000154 g     F .text	0000000c .hidden __riscv_restore_1
0000133a g     F .text	0000073e .hidden __subdf3
00002f1e g     F .text	0000028a _vfprintf_r
00001a78 g     F .text	0000036a .hidden __addsf3
00000794 g     F .text	0000006a LCD_GPIOInit
000003d0  w      .text	00000000 USBWakeUp_IRQHandler
00003b80 g     F .text	0000000c _close



Disassembly of section .init:

00000000 <_sinit>:
   0:	3d20006f          	j	3d2 <handle_reset>

Disassembly of section .vector:

00000004 <_vector_base>:
	...
   c:	0208                	addi	a0,sp,256
   e:	0000                	unimp
  10:	020a                	slli	tp,tp,0x2
  12:	0000                	unimp
  14:	0000                	unimp
  16:	0000                	unimp
  18:	03d0                	addi	a2,sp,452
	...
  22:	0000                	unimp
  24:	03d0                	addi	a2,sp,452
  26:	0000                	unimp
  28:	03d0                	addi	a2,sp,452
	...
  32:	0000                	unimp
  34:	03d0                	addi	a2,sp,452
  36:	0000                	unimp
  38:	0000                	unimp
  3a:	0000                	unimp
  3c:	03d0                	addi	a2,sp,452
  3e:	0000                	unimp
  40:	0000                	unimp
  42:	0000                	unimp
  44:	03d0                	addi	a2,sp,452
  46:	0000                	unimp
  48:	03d0                	addi	a2,sp,452
  4a:	0000                	unimp
  4c:	03d0                	addi	a2,sp,452
  4e:	0000                	unimp
  50:	03d0                	addi	a2,sp,452
  52:	0000                	unimp
  54:	03d0                	addi	a2,sp,452
  56:	0000                	unimp
  58:	03d0                	addi	a2,sp,452
  5a:	0000                	unimp
  5c:	03d0                	addi	a2,sp,452
  5e:	0000                	unimp
  60:	03d0                	addi	a2,sp,452
  62:	0000                	unimp
  64:	03d0                	addi	a2,sp,452
  66:	0000                	unimp
  68:	03d0                	addi	a2,sp,452
  6a:	0000                	unimp
  6c:	03d0                	addi	a2,sp,452
  6e:	0000                	unimp
  70:	03d0                	addi	a2,sp,452
  72:	0000                	unimp
  74:	03d0                	addi	a2,sp,452
  76:	0000                	unimp
  78:	03d0                	addi	a2,sp,452
  7a:	0000                	unimp
  7c:	03d0                	addi	a2,sp,452
  7e:	0000                	unimp
  80:	03d0                	addi	a2,sp,452
  82:	0000                	unimp
  84:	03d0                	addi	a2,sp,452
  86:	0000                	unimp
  88:	03d0                	addi	a2,sp,452
  8a:	0000                	unimp
  8c:	03d0                	addi	a2,sp,452
  8e:	0000                	unimp
  90:	03d0                	addi	a2,sp,452
  92:	0000                	unimp
  94:	03d0                	addi	a2,sp,452
  96:	0000                	unimp
  98:	03d0                	addi	a2,sp,452
  9a:	0000                	unimp
  9c:	03d0                	addi	a2,sp,452
  9e:	0000                	unimp
  a0:	03d0                	addi	a2,sp,452
  a2:	0000                	unimp
  a4:	03d0                	addi	a2,sp,452
  a6:	0000                	unimp
  a8:	03d0                	addi	a2,sp,452
  aa:	0000                	unimp
  ac:	03d0                	addi	a2,sp,452
  ae:	0000                	unimp
  b0:	03d0                	addi	a2,sp,452
  b2:	0000                	unimp
  b4:	03d0                	addi	a2,sp,452
  b6:	0000                	unimp
  b8:	03d0                	addi	a2,sp,452
  ba:	0000                	unimp
  bc:	03d0                	addi	a2,sp,452
  be:	0000                	unimp
  c0:	03d0                	addi	a2,sp,452
  c2:	0000                	unimp
  c4:	03d0                	addi	a2,sp,452
  c6:	0000                	unimp
  c8:	03d0                	addi	a2,sp,452
  ca:	0000                	unimp
  cc:	03d0                	addi	a2,sp,452
  ce:	0000                	unimp
  d0:	03d0                	addi	a2,sp,452
  d2:	0000                	unimp
  d4:	03d0                	addi	a2,sp,452
  d6:	0000                	unimp
  d8:	03d0                	addi	a2,sp,452
  da:	0000                	unimp
  dc:	03d0                	addi	a2,sp,452
  de:	0000                	unimp
  e0:	03d0                	addi	a2,sp,452
  e2:	0000                	unimp
  e4:	03d0                	addi	a2,sp,452
  e6:	0000                	unimp
  e8:	03d0                	addi	a2,sp,452
  ea:	0000                	unimp
  ec:	03d0                	addi	a2,sp,452
  ee:	0000                	unimp
  f0:	03d0                	addi	a2,sp,452
  f2:	0000                	unimp
  f4:	03d0                	addi	a2,sp,452
  f6:	0000                	unimp
  f8:	03d0                	addi	a2,sp,452
  fa:	0000                	unimp
  fc:	03d0                	addi	a2,sp,452
	...

Disassembly of section .text:

00000100 <__riscv_save_12>:
     100:	7139                	addi	sp,sp,-64
     102:	4301                	li	t1,0
     104:	c66e                	sw	s11,12(sp)
     106:	a019                	j	10c <__riscv_save_10+0x4>

00000108 <__riscv_save_10>:
     108:	7139                	addi	sp,sp,-64
     10a:	5341                	li	t1,-16
     10c:	c86a                	sw	s10,16(sp)
     10e:	ca66                	sw	s9,20(sp)
     110:	cc62                	sw	s8,24(sp)
     112:	ce5e                	sw	s7,28(sp)
     114:	a019                	j	11a <__riscv_save_4+0x4>

00000116 <__riscv_save_4>:
     116:	7139                	addi	sp,sp,-64
     118:	5301                	li	t1,-32
     11a:	d05a                	sw	s6,32(sp)
     11c:	d256                	sw	s5,36(sp)
     11e:	d452                	sw	s4,40(sp)
     120:	d64e                	sw	s3,44(sp)
     122:	d84a                	sw	s2,48(sp)
     124:	da26                	sw	s1,52(sp)
     126:	dc22                	sw	s0,56(sp)
     128:	de06                	sw	ra,60(sp)
     12a:	40610133          	sub	sp,sp,t1
     12e:	8282                	jr	t0

00000130 <__riscv_save_0>:
     130:	1141                	addi	sp,sp,-16
     132:	c04a                	sw	s2,0(sp)
     134:	c226                	sw	s1,4(sp)
     136:	c422                	sw	s0,8(sp)
     138:	c606                	sw	ra,12(sp)
     13a:	8282                	jr	t0

0000013c <__riscv_restore_12>:
     13c:	4db2                	lw	s11,12(sp)
     13e:	0141                	addi	sp,sp,16

00000140 <__riscv_restore_10>:
     140:	4d02                	lw	s10,0(sp)
     142:	4c92                	lw	s9,4(sp)
     144:	4c22                	lw	s8,8(sp)
     146:	4bb2                	lw	s7,12(sp)
     148:	0141                	addi	sp,sp,16

0000014a <__riscv_restore_4>:
     14a:	4b02                	lw	s6,0(sp)
     14c:	4a92                	lw	s5,4(sp)
     14e:	4a22                	lw	s4,8(sp)
     150:	49b2                	lw	s3,12(sp)
     152:	0141                	addi	sp,sp,16

00000154 <__riscv_restore_0>:
     154:	4902                	lw	s2,0(sp)
     156:	4492                	lw	s1,4(sp)
     158:	4422                	lw	s0,8(sp)
     15a:	40b2                	lw	ra,12(sp)
     15c:	0141                	addi	sp,sp,16
     15e:	8082                	ret

00000160 <memset>:
     160:	433d                	li	t1,15
     162:	872a                	mv	a4,a0
     164:	02c37363          	bgeu	t1,a2,18a <memset+0x2a>
     168:	00f77793          	andi	a5,a4,15
     16c:	efbd                	bnez	a5,1ea <memset+0x8a>
     16e:	e5ad                	bnez	a1,1d8 <memset+0x78>
     170:	ff067693          	andi	a3,a2,-16
     174:	8a3d                	andi	a2,a2,15
     176:	96ba                	add	a3,a3,a4
     178:	c30c                	sw	a1,0(a4)
     17a:	c34c                	sw	a1,4(a4)
     17c:	c70c                	sw	a1,8(a4)
     17e:	c74c                	sw	a1,12(a4)
     180:	0741                	addi	a4,a4,16
     182:	fed76be3          	bltu	a4,a3,178 <memset+0x18>
     186:	e211                	bnez	a2,18a <memset+0x2a>
     188:	8082                	ret
     18a:	40c306b3          	sub	a3,t1,a2
     18e:	068a                	slli	a3,a3,0x2
     190:	00000297          	auipc	t0,0x0
     194:	9696                	add	a3,a3,t0
     196:	00a68067          	jr	10(a3)
     19a:	00b70723          	sb	a1,14(a4)
     19e:	00b706a3          	sb	a1,13(a4)
     1a2:	00b70623          	sb	a1,12(a4)
     1a6:	00b705a3          	sb	a1,11(a4)
     1aa:	00b70523          	sb	a1,10(a4)
     1ae:	00b704a3          	sb	a1,9(a4)
     1b2:	00b70423          	sb	a1,8(a4)
     1b6:	00b703a3          	sb	a1,7(a4)
     1ba:	00b70323          	sb	a1,6(a4)
     1be:	00b702a3          	sb	a1,5(a4)
     1c2:	00b70223          	sb	a1,4(a4)
     1c6:	00b701a3          	sb	a1,3(a4)
     1ca:	00b70123          	sb	a1,2(a4)
     1ce:	00b700a3          	sb	a1,1(a4)
     1d2:	00b70023          	sb	a1,0(a4)
     1d6:	8082                	ret
     1d8:	0ff5f593          	andi	a1,a1,255
     1dc:	00859693          	slli	a3,a1,0x8
     1e0:	8dd5                	or	a1,a1,a3
     1e2:	01059693          	slli	a3,a1,0x10
     1e6:	8dd5                	or	a1,a1,a3
     1e8:	b761                	j	170 <memset+0x10>
     1ea:	00279693          	slli	a3,a5,0x2
     1ee:	00000297          	auipc	t0,0x0
     1f2:	9696                	add	a3,a3,t0
     1f4:	8286                	mv	t0,ra
     1f6:	fa8680e7          	jalr	-88(a3)
     1fa:	8096                	mv	ra,t0
     1fc:	17c1                	addi	a5,a5,-16
     1fe:	8f1d                	sub	a4,a4,a5
     200:	963e                	add	a2,a2,a5
     202:	f8c374e3          	bgeu	t1,a2,18a <memset+0x2a>
     206:	b7a5                	j	16e <memset+0xe>

00000208 <NMI_Handler>:
     208:	a001                	j	208 <NMI_Handler>

0000020a <HardFault_Handler>:
     20a:	beef07b7          	lui	a5,0xbeef0
     20e:	e000e737          	lui	a4,0xe000e
     212:	08078793          	addi	a5,a5,128 # beef0080 <_eusrstack+0x9eeeb080>
     216:	c73c                	sw	a5,72(a4)
     218:	a001                	j	218 <HardFault_Handler+0xe>

0000021a <main>:
     21a:	f17ff2ef          	jal	t0,130 <__riscv_save_0>
     21e:	2205                	jal	33e <SystemCoreClockUpdate>
     220:	345000ef          	jal	ra,d64 <Delay_Init>
     224:	6571                	lui	a0,0x1c
     226:	20050513          	addi	a0,a0,512 # 1c200 <_data_lma+0x1838c>
     22a:	39b000ef          	jal	ra,dc4 <USART_Printf_Init>
     22e:	200007b7          	lui	a5,0x20000
     232:	0807a583          	lw	a1,128(a5) # 20000080 <SystemCoreClock>
     236:	00004537          	lui	a0,0x4
     23a:	bbc50513          	addi	a0,a0,-1092 # 3bbc <_read+0xc>
     23e:	09f020ef          	jal	ra,2adc <iprintf>
     242:	4505                	li	a0,1
     244:	2d9d                	jal	8ba <LCD_1IN47_Init>
     246:	6541                	lui	a0,0x10
     248:	157d                	addi	a0,a0,-1
     24a:	0fd000ef          	jal	ra,b46 <LCD_1IN47_Clear>
     24e:	141000ef          	jal	ra,b8e <Draw_Solid_Heart>
     252:	a001                	j	252 <main+0x38>

00000254 <SystemInit>:
     254:	400217b7          	lui	a5,0x40021
     258:	4398                	lw	a4,0(a5)
     25a:	f0ff06b7          	lui	a3,0xf0ff0
     25e:	1141                	addi	sp,sp,-16
     260:	00176713          	ori	a4,a4,1
     264:	c398                	sw	a4,0(a5)
     266:	43d8                	lw	a4,4(a5)
     268:	00020637          	lui	a2,0x20
     26c:	8f75                	and	a4,a4,a3
     26e:	c3d8                	sw	a4,4(a5)
     270:	4398                	lw	a4,0(a5)
     272:	fef706b7          	lui	a3,0xfef70
     276:	16fd                	addi	a3,a3,-1
     278:	8f75                	and	a4,a4,a3
     27a:	c398                	sw	a4,0(a5)
     27c:	4398                	lw	a4,0(a5)
     27e:	fffc06b7          	lui	a3,0xfffc0
     282:	16fd                	addi	a3,a3,-1
     284:	8f75                	and	a4,a4,a3
     286:	c398                	sw	a4,0(a5)
     288:	43d8                	lw	a4,4(a5)
     28a:	ff0106b7          	lui	a3,0xff010
     28e:	16fd                	addi	a3,a3,-1
     290:	8f75                	and	a4,a4,a3
     292:	c3d8                	sw	a4,4(a5)
     294:	009f0737          	lui	a4,0x9f0
     298:	c798                	sw	a4,8(a5)
     29a:	c402                	sw	zero,8(sp)
     29c:	c602                	sw	zero,12(sp)
     29e:	4398                	lw	a4,0(a5)
     2a0:	66c1                	lui	a3,0x10
     2a2:	8f55                	or	a4,a4,a3
     2a4:	c398                	sw	a4,0(a5)
     2a6:	400216b7          	lui	a3,0x40021
     2aa:	6705                	lui	a4,0x1
     2ac:	429c                	lw	a5,0(a3)
     2ae:	8ff1                	and	a5,a5,a2
     2b0:	c63e                	sw	a5,12(sp)
     2b2:	47a2                	lw	a5,8(sp)
     2b4:	0785                	addi	a5,a5,1
     2b6:	c43e                	sw	a5,8(sp)
     2b8:	47b2                	lw	a5,12(sp)
     2ba:	e781                	bnez	a5,2c2 <SystemInit+0x6e>
     2bc:	47a2                	lw	a5,8(sp)
     2be:	fee797e3          	bne	a5,a4,2ac <SystemInit+0x58>
     2c2:	400217b7          	lui	a5,0x40021
     2c6:	439c                	lw	a5,0(a5)
     2c8:	00e79713          	slli	a4,a5,0xe
     2cc:	06075763          	bgez	a4,33a <SystemInit+0xe6>
     2d0:	4785                	li	a5,1
     2d2:	c63e                	sw	a5,12(sp)
     2d4:	4732                	lw	a4,12(sp)
     2d6:	4785                	li	a5,1
     2d8:	04f71f63          	bne	a4,a5,336 <SystemInit+0xe2>
     2dc:	400217b7          	lui	a5,0x40021
     2e0:	43d8                	lw	a4,4(a5)
     2e2:	ffc106b7          	lui	a3,0xffc10
     2e6:	16fd                	addi	a3,a3,-1
     2e8:	c3d8                	sw	a4,4(a5)
     2ea:	43d8                	lw	a4,4(a5)
     2ec:	c3d8                	sw	a4,4(a5)
     2ee:	43d8                	lw	a4,4(a5)
     2f0:	40076713          	ori	a4,a4,1024
     2f4:	c3d8                	sw	a4,4(a5)
     2f6:	43d8                	lw	a4,4(a5)
     2f8:	8f75                	and	a4,a4,a3
     2fa:	c3d8                	sw	a4,4(a5)
     2fc:	43d8                	lw	a4,4(a5)
     2fe:	003d06b7          	lui	a3,0x3d0
     302:	8f55                	or	a4,a4,a3
     304:	c3d8                	sw	a4,4(a5)
     306:	4398                	lw	a4,0(a5)
     308:	010006b7          	lui	a3,0x1000
     30c:	8f55                	or	a4,a4,a3
     30e:	c398                	sw	a4,0(a5)
     310:	4398                	lw	a4,0(a5)
     312:	00671693          	slli	a3,a4,0x6
     316:	fe06dde3          	bgez	a3,310 <SystemInit+0xbc>
     31a:	43d8                	lw	a4,4(a5)
     31c:	400216b7          	lui	a3,0x40021
     320:	9b71                	andi	a4,a4,-4
     322:	c3d8                	sw	a4,4(a5)
     324:	43d8                	lw	a4,4(a5)
     326:	00276713          	ori	a4,a4,2
     32a:	c3d8                	sw	a4,4(a5)
     32c:	4721                	li	a4,8
     32e:	42dc                	lw	a5,4(a3)
     330:	8bb1                	andi	a5,a5,12
     332:	fee79ee3          	bne	a5,a4,32e <SystemInit+0xda>
     336:	0141                	addi	sp,sp,16
     338:	8082                	ret
     33a:	c602                	sw	zero,12(sp)
     33c:	bf61                	j	2d4 <SystemInit+0x80>

0000033e <SystemCoreClockUpdate>:
     33e:	400216b7          	lui	a3,0x40021
     342:	42dc                	lw	a5,4(a3)
     344:	20000737          	lui	a4,0x20000
     348:	4611                	li	a2,4
     34a:	8bb1                	andi	a5,a5,12
     34c:	08070713          	addi	a4,a4,128 # 20000080 <SystemCoreClock>
     350:	00c78563          	beq	a5,a2,35a <SystemCoreClockUpdate+0x1c>
     354:	4621                	li	a2,8
     356:	02c78863          	beq	a5,a2,386 <SystemCoreClockUpdate+0x48>
     35a:	007a17b7          	lui	a5,0x7a1
     35e:	20078793          	addi	a5,a5,512 # 7a1200 <_data_lma+0x79d38c>
     362:	c31c                	sw	a5,0(a4)
     364:	400217b7          	lui	a5,0x40021
     368:	43dc                	lw	a5,4(a5)
     36a:	8391                	srli	a5,a5,0x4
     36c:	00f7f693          	andi	a3,a5,15
     370:	200007b7          	lui	a5,0x20000
     374:	00078793          	mv	a5,a5
     378:	97b6                	add	a5,a5,a3
     37a:	2394                	lbu	a3,0(a5)
     37c:	431c                	lw	a5,0(a4)
     37e:	00d7d7b3          	srl	a5,a5,a3
     382:	c31c                	sw	a5,0(a4)
     384:	8082                	ret
     386:	42dc                	lw	a5,4(a3)
     388:	42d4                	lw	a3,4(a3)
     38a:	6641                	lui	a2,0x10
     38c:	83c9                	srli	a5,a5,0x12
     38e:	8bbd                	andi	a5,a5,15
     390:	8ef1                	and	a3,a3,a2
     392:	0789                	addi	a5,a5,2
     394:	4645                	li	a2,17
     396:	00c79363          	bne	a5,a2,39c <SystemCoreClockUpdate+0x5e>
     39a:	47c9                	li	a5,18
     39c:	ee81                	bnez	a3,3b4 <SystemCoreClockUpdate+0x76>
     39e:	400246b7          	lui	a3,0x40024
     3a2:	8006a683          	lw	a3,-2048(a3) # 40023800 <_eusrstack+0x2001e800>
     3a6:	8ac1                	andi	a3,a3,16
     3a8:	ce89                	beqz	a3,3c2 <SystemCoreClockUpdate+0x84>
     3aa:	007a16b7          	lui	a3,0x7a1
     3ae:	20068693          	addi	a3,a3,512 # 7a1200 <_data_lma+0x79d38c>
     3b2:	a821                	j	3ca <SystemCoreClockUpdate+0x8c>
     3b4:	400216b7          	lui	a3,0x40021
     3b8:	42d4                	lw	a3,4(a3)
     3ba:	00e69613          	slli	a2,a3,0xe
     3be:	fe0656e3          	bgez	a2,3aa <SystemCoreClockUpdate+0x6c>
     3c2:	003d16b7          	lui	a3,0x3d1
     3c6:	90068693          	addi	a3,a3,-1792 # 3d0900 <_data_lma+0x3cca8c>
     3ca:	02d787b3          	mul	a5,a5,a3
     3ce:	bf51                	j	362 <SystemCoreClockUpdate+0x24>

000003d0 <ADC1_2_IRQHandler>:
     3d0:	a001                	j	3d0 <ADC1_2_IRQHandler>

000003d2 <handle_reset>:
     3d2:	20000197          	auipc	gp,0x20000
     3d6:	4ae18193          	addi	gp,gp,1198 # 20000880 <__global_pointer$>
     3da:	20005117          	auipc	sp,0x20005
     3de:	c2610113          	addi	sp,sp,-986 # 20005000 <_eusrstack>
     3e2:	00004517          	auipc	a0,0x4
     3e6:	a9250513          	addi	a0,a0,-1390 # 3e74 <_data_lma>
     3ea:	20000597          	auipc	a1,0x20000
     3ee:	c1658593          	addi	a1,a1,-1002 # 20000000 <_data_vma>
     3f2:	81818613          	addi	a2,gp,-2024 # 20000098 <_edata>
     3f6:	00c5fa63          	bgeu	a1,a2,40a <handle_reset+0x38>
     3fa:	00052283          	lw	t0,0(a0)
     3fe:	0055a023          	sw	t0,0(a1)
     402:	0511                	addi	a0,a0,4
     404:	0591                	addi	a1,a1,4
     406:	fec5eae3          	bltu	a1,a2,3fa <handle_reset+0x28>
     40a:	81818513          	addi	a0,gp,-2024 # 20000098 <_edata>
     40e:	83418593          	addi	a1,gp,-1996 # 200000b4 <_ebss>
     412:	00b57763          	bgeu	a0,a1,420 <handle_reset+0x4e>
     416:	00052023          	sw	zero,0(a0)
     41a:	0511                	addi	a0,a0,4
     41c:	feb56de3          	bltu	a0,a1,416 <handle_reset+0x44>
     420:	42fd                	li	t0,31
     422:	bc029073          	csrw	0xbc0,t0
     426:	428d                	li	t0,3
     428:	80429073          	csrw	0x804,t0
     42c:	08800293          	li	t0,136
     430:	30029073          	csrw	mstatus,t0
     434:	00000297          	auipc	t0,0x0
     438:	bd028293          	addi	t0,t0,-1072 # 4 <_einit>
     43c:	0032e293          	ori	t0,t0,3
     440:	30529073          	csrw	mtvec,t0
     444:	e11ff0ef          	jal	ra,254 <SystemInit>
     448:	00000297          	auipc	t0,0x0
     44c:	dd228293          	addi	t0,t0,-558 # 21a <main>
     450:	34129073          	csrw	mepc,t0
     454:	30200073          	mret

00000458 <GPIO_Init>:
     458:	459c                	lw	a5,8(a1)
     45a:	0107f713          	andi	a4,a5,16
     45e:	00f7f813          	andi	a6,a5,15
     462:	c701                	beqz	a4,46a <GPIO_Init+0x12>
     464:	41d8                	lw	a4,4(a1)
     466:	00e86833          	or	a6,a6,a4
     46a:	40022737          	lui	a4,0x40022
     46e:	5b14                	lw	a3,48(a4)
     470:	0f000737          	lui	a4,0xf000
     474:	8f75                	and	a4,a4,a3
     476:	eb4d                	bnez	a4,528 <GPIO_Init+0xd0>
     478:	4685                	li	a3,1
     47a:	80d18c23          	sb	a3,-2024(gp) # 20000098 <_edata>
     47e:	40011737          	lui	a4,0x40011
     482:	00e51563          	bne	a0,a4,48c <GPIO_Init+0x34>
     486:	219a                	lhu	a4,0(a1)
     488:	8335                	srli	a4,a4,0xd
     48a:	a19a                	sh	a4,0(a1)
     48c:	218e                	lhu	a1,0(a1)
     48e:	0ff5f713          	andi	a4,a1,255
     492:	c339                	beqz	a4,4d8 <GPIO_Init+0x80>
     494:	4118                	lw	a4,0(a0)
     496:	4681                	li	a3,0
     498:	4e85                	li	t4,1
     49a:	4f3d                	li	t5,15
     49c:	02800f93          	li	t6,40
     4a0:	04800293          	li	t0,72
     4a4:	4e21                	li	t3,8
     4a6:	00de9633          	sll	a2,t4,a3
     4aa:	00c5f8b3          	and	a7,a1,a2
     4ae:	03161163          	bne	a2,a7,4d0 <GPIO_Init+0x78>
     4b2:	00269893          	slli	a7,a3,0x2
     4b6:	011f1333          	sll	t1,t5,a7
     4ba:	fff34313          	not	t1,t1
     4be:	00e37733          	and	a4,t1,a4
     4c2:	011818b3          	sll	a7,a6,a7
     4c6:	00e8e733          	or	a4,a7,a4
     4ca:	07f79763          	bne	a5,t6,538 <GPIO_Init+0xe0>
     4ce:	c950                	sw	a2,20(a0)
     4d0:	0685                	addi	a3,a3,1
     4d2:	fdc69ae3          	bne	a3,t3,4a6 <GPIO_Init+0x4e>
     4d6:	c118                	sw	a4,0(a0)
     4d8:	0ff00713          	li	a4,255
     4dc:	04b77563          	bgeu	a4,a1,526 <GPIO_Init+0xce>
     4e0:	4154                	lw	a3,4(a0)
     4e2:	4621                	li	a2,8
     4e4:	4e85                	li	t4,1
     4e6:	4f3d                	li	t5,15
     4e8:	02800f93          	li	t6,40
     4ec:	04800293          	li	t0,72
     4f0:	4e41                	li	t3,16
     4f2:	00ce98b3          	sll	a7,t4,a2
     4f6:	0115f733          	and	a4,a1,a7
     4fa:	02e89263          	bne	a7,a4,51e <GPIO_Init+0xc6>
     4fe:	00261713          	slli	a4,a2,0x2
     502:	1701                	addi	a4,a4,-32
     504:	00ef1333          	sll	t1,t5,a4
     508:	fff34313          	not	t1,t1
     50c:	00d376b3          	and	a3,t1,a3
     510:	00e81733          	sll	a4,a6,a4
     514:	8ed9                	or	a3,a3,a4
     516:	03f79563          	bne	a5,t6,540 <GPIO_Init+0xe8>
     51a:	01152a23          	sw	a7,20(a0)
     51e:	0605                	addi	a2,a2,1
     520:	fdc619e3          	bne	a2,t3,4f2 <GPIO_Init+0x9a>
     524:	c154                	sw	a3,4(a0)
     526:	8082                	ret
     528:	40011737          	lui	a4,0x40011
     52c:	f6e510e3          	bne	a0,a4,48c <GPIO_Init+0x34>
     530:	8181c703          	lbu	a4,-2024(gp) # 20000098 <_edata>
     534:	df21                	beqz	a4,48c <GPIO_Init+0x34>
     536:	bf81                	j	486 <GPIO_Init+0x2e>
     538:	f8579ce3          	bne	a5,t0,4d0 <GPIO_Init+0x78>
     53c:	c910                	sw	a2,16(a0)
     53e:	bf49                	j	4d0 <GPIO_Init+0x78>
     540:	fc579fe3          	bne	a5,t0,51e <GPIO_Init+0xc6>
     544:	01152823          	sw	a7,16(a0)
     548:	bfd9                	j	51e <GPIO_Init+0xc6>

0000054a <RCC_GetClocksFreq>:
     54a:	40021737          	lui	a4,0x40021
     54e:	435c                	lw	a5,4(a4)
     550:	4691                	li	a3,4
     552:	8bb1                	andi	a5,a5,12
     554:	00d78563          	beq	a5,a3,55e <RCC_GetClocksFreq+0x14>
     558:	46a1                	li	a3,8
     55a:	06d78263          	beq	a5,a3,5be <RCC_GetClocksFreq+0x74>
     55e:	007a17b7          	lui	a5,0x7a1
     562:	20078793          	addi	a5,a5,512 # 7a1200 <_data_lma+0x79d38c>
     566:	c11c                	sw	a5,0(a0)
     568:	40021637          	lui	a2,0x40021
     56c:	425c                	lw	a5,4(a2)
     56e:	20000737          	lui	a4,0x20000
     572:	01070713          	addi	a4,a4,16 # 20000010 <APBAHBPrescTable>
     576:	8391                	srli	a5,a5,0x4
     578:	8bbd                	andi	a5,a5,15
     57a:	97ba                	add	a5,a5,a4
     57c:	2394                	lbu	a3,0(a5)
     57e:	411c                	lw	a5,0(a0)
     580:	00d7d7b3          	srl	a5,a5,a3
     584:	c15c                	sw	a5,4(a0)
     586:	4254                	lw	a3,4(a2)
     588:	82a1                	srli	a3,a3,0x8
     58a:	8a9d                	andi	a3,a3,7
     58c:	96ba                	add	a3,a3,a4
     58e:	2294                	lbu	a3,0(a3)
     590:	00d7d6b3          	srl	a3,a5,a3
     594:	c514                	sw	a3,8(a0)
     596:	4254                	lw	a3,4(a2)
     598:	82ad                	srli	a3,a3,0xb
     59a:	8a9d                	andi	a3,a3,7
     59c:	9736                	add	a4,a4,a3
     59e:	2318                	lbu	a4,0(a4)
     5a0:	00e7d7b3          	srl	a5,a5,a4
     5a4:	c55c                	sw	a5,12(a0)
     5a6:	4258                	lw	a4,4(a2)
     5a8:	8339                	srli	a4,a4,0xe
     5aa:	00377693          	andi	a3,a4,3
     5ae:	80418713          	addi	a4,gp,-2044 # 20000084 <ADCPrescTable>
     5b2:	9736                	add	a4,a4,a3
     5b4:	2318                	lbu	a4,0(a4)
     5b6:	02e7d7b3          	divu	a5,a5,a4
     5ba:	c91c                	sw	a5,16(a0)
     5bc:	8082                	ret
     5be:	435c                	lw	a5,4(a4)
     5c0:	4358                	lw	a4,4(a4)
     5c2:	66c1                	lui	a3,0x10
     5c4:	83c9                	srli	a5,a5,0x12
     5c6:	8bbd                	andi	a5,a5,15
     5c8:	8f75                	and	a4,a4,a3
     5ca:	0789                	addi	a5,a5,2
     5cc:	46c5                	li	a3,17
     5ce:	00d79363          	bne	a5,a3,5d4 <RCC_GetClocksFreq+0x8a>
     5d2:	47c9                	li	a5,18
     5d4:	ef01                	bnez	a4,5ec <RCC_GetClocksFreq+0xa2>
     5d6:	40024737          	lui	a4,0x40024
     5da:	80072703          	lw	a4,-2048(a4) # 40023800 <_eusrstack+0x2001e800>
     5de:	8b41                	andi	a4,a4,16
     5e0:	cf09                	beqz	a4,5fa <RCC_GetClocksFreq+0xb0>
     5e2:	007a1737          	lui	a4,0x7a1
     5e6:	20070713          	addi	a4,a4,512 # 7a1200 <_data_lma+0x79d38c>
     5ea:	a821                	j	602 <RCC_GetClocksFreq+0xb8>
     5ec:	40021737          	lui	a4,0x40021
     5f0:	4358                	lw	a4,4(a4)
     5f2:	00e71693          	slli	a3,a4,0xe
     5f6:	fe06d6e3          	bgez	a3,5e2 <RCC_GetClocksFreq+0x98>
     5fa:	003d1737          	lui	a4,0x3d1
     5fe:	90070713          	addi	a4,a4,-1792 # 3d0900 <_data_lma+0x3cca8c>
     602:	02e787b3          	mul	a5,a5,a4
     606:	b785                	j	566 <RCC_GetClocksFreq+0x1c>

00000608 <RCC_APB2PeriphClockCmd>:
     608:	c599                	beqz	a1,616 <RCC_APB2PeriphClockCmd+0xe>
     60a:	40021737          	lui	a4,0x40021
     60e:	4f1c                	lw	a5,24(a4)
     610:	8d5d                	or	a0,a0,a5
     612:	cf08                	sw	a0,24(a4)
     614:	8082                	ret
     616:	400217b7          	lui	a5,0x40021
     61a:	4f98                	lw	a4,24(a5)
     61c:	fff54513          	not	a0,a0
     620:	8d79                	and	a0,a0,a4
     622:	cf88                	sw	a0,24(a5)
     624:	8082                	ret

00000626 <SPI_Init>:
     626:	211a                	lhu	a4,0(a0)
     628:	678d                	lui	a5,0x3
     62a:	04078793          	addi	a5,a5,64 # 3040 <_vfiprintf_r+0x122>
     62e:	21b6                	lhu	a3,2(a1)
     630:	8f7d                	and	a4,a4,a5
     632:	219e                	lhu	a5,0(a1)
     634:	8fd5                	or	a5,a5,a3
     636:	21d6                	lhu	a3,4(a1)
     638:	8fd5                	or	a5,a5,a3
     63a:	21f6                	lhu	a3,6(a1)
     63c:	8fd5                	or	a5,a5,a3
     63e:	2596                	lhu	a3,8(a1)
     640:	8fd5                	or	a5,a5,a3
     642:	25b6                	lhu	a3,10(a1)
     644:	8fd5                	or	a5,a5,a3
     646:	25d6                	lhu	a3,12(a1)
     648:	8fd5                	or	a5,a5,a3
     64a:	25f6                	lhu	a3,14(a1)
     64c:	8fd5                	or	a5,a5,a3
     64e:	8fd9                	or	a5,a5,a4
     650:	a11e                	sh	a5,0(a0)
     652:	2d5a                	lhu	a4,28(a0)
     654:	77fd                	lui	a5,0xfffff
     656:	7ff78793          	addi	a5,a5,2047 # fffff7ff <_eusrstack+0xdfffa7ff>
     65a:	8ff9                	and	a5,a5,a4
     65c:	ad5e                	sh	a5,28(a0)
     65e:	299e                	lhu	a5,16(a1)
     660:	a91e                	sh	a5,16(a0)
     662:	8082                	ret

00000664 <SPI_Cmd>:
     664:	211e                	lhu	a5,0(a0)
     666:	c589                	beqz	a1,670 <SPI_Cmd+0xc>
     668:	0407e793          	ori	a5,a5,64
     66c:	a11e                	sh	a5,0(a0)
     66e:	8082                	ret
     670:	07c2                	slli	a5,a5,0x10
     672:	83c1                	srli	a5,a5,0x10
     674:	fbf7f793          	andi	a5,a5,-65
     678:	07c2                	slli	a5,a5,0x10
     67a:	83c1                	srli	a5,a5,0x10
     67c:	bfc5                	j	66c <SPI_Cmd+0x8>

0000067e <SPI_I2S_SendData>:
     67e:	a54e                	sh	a1,12(a0)
     680:	8082                	ret

00000682 <SPI_I2S_GetFlagStatus>:
     682:	250a                	lhu	a0,8(a0)
     684:	8d6d                	and	a0,a0,a1
     686:	00a03533          	snez	a0,a0
     68a:	8082                	ret

0000068c <USART_Init>:
     68c:	aa5ff2ef          	jal	t0,130 <__riscv_save_0>
     690:	2916                	lhu	a3,16(a0)
     692:	77f5                	lui	a5,0xffffd
     694:	17fd                	addi	a5,a5,-1
     696:	8ff5                	and	a5,a5,a3
     698:	21f6                	lhu	a3,6(a1)
     69a:	25da                	lhu	a4,12(a1)
     69c:	7179                	addi	sp,sp,-48
     69e:	8fd5                	or	a5,a5,a3
     6a0:	a91e                	sh	a5,16(a0)
     6a2:	2556                	lhu	a3,12(a0)
     6a4:	77fd                	lui	a5,0xfffff
     6a6:	9f378793          	addi	a5,a5,-1549 # ffffe9f3 <_eusrstack+0xdfff99f3>
     6aa:	8ff5                	and	a5,a5,a3
     6ac:	21d6                	lhu	a3,4(a1)
     6ae:	842a                	mv	s0,a0
     6b0:	c62e                	sw	a1,12(sp)
     6b2:	8fd5                	or	a5,a5,a3
     6b4:	2596                	lhu	a3,8(a1)
     6b6:	8fd5                	or	a5,a5,a3
     6b8:	25b6                	lhu	a3,10(a1)
     6ba:	8fd5                	or	a5,a5,a3
     6bc:	a55e                	sh	a5,12(a0)
     6be:	295e                	lhu	a5,20(a0)
     6c0:	07c2                	slli	a5,a5,0x10
     6c2:	83c1                	srli	a5,a5,0x10
     6c4:	cff7f793          	andi	a5,a5,-769
     6c8:	8fd9                	or	a5,a5,a4
     6ca:	a95e                	sh	a5,20(a0)
     6cc:	0868                	addi	a0,sp,28
     6ce:	3db5                	jal	54a <RCC_GetClocksFreq>
     6d0:	400147b7          	lui	a5,0x40014
     6d4:	80078793          	addi	a5,a5,-2048 # 40013800 <_eusrstack+0x2000e800>
     6d8:	45b2                	lw	a1,12(sp)
     6da:	02f41d63          	bne	s0,a5,714 <USART_Init+0x88>
     6de:	57a2                	lw	a5,40(sp)
     6e0:	4765                	li	a4,25
     6e2:	02e787b3          	mul	a5,a5,a4
     6e6:	4198                	lw	a4,0(a1)
     6e8:	06400693          	li	a3,100
     6ec:	070a                	slli	a4,a4,0x2
     6ee:	02e7d7b3          	divu	a5,a5,a4
     6f2:	02d7d733          	divu	a4,a5,a3
     6f6:	02d7f7b3          	remu	a5,a5,a3
     6fa:	0712                	slli	a4,a4,0x4
     6fc:	0792                	slli	a5,a5,0x4
     6fe:	03278793          	addi	a5,a5,50
     702:	02d7d7b3          	divu	a5,a5,a3
     706:	8bbd                	andi	a5,a5,15
     708:	8fd9                	or	a5,a5,a4
     70a:	07c2                	slli	a5,a5,0x10
     70c:	83c1                	srli	a5,a5,0x10
     70e:	a41e                	sh	a5,8(s0)
     710:	6145                	addi	sp,sp,48
     712:	b489                	j	154 <__riscv_restore_0>
     714:	5792                	lw	a5,36(sp)
     716:	b7e9                	j	6e0 <USART_Init+0x54>

00000718 <USART_Cmd>:
     718:	c591                	beqz	a1,724 <USART_Cmd+0xc>
     71a:	255e                	lhu	a5,12(a0)
     71c:	6709                	lui	a4,0x2
     71e:	8fd9                	or	a5,a5,a4
     720:	a55e                	sh	a5,12(a0)
     722:	8082                	ret
     724:	255a                	lhu	a4,12(a0)
     726:	77f9                	lui	a5,0xffffe
     728:	17fd                	addi	a5,a5,-1
     72a:	8ff9                	and	a5,a5,a4
     72c:	bfd5                	j	720 <USART_Cmd+0x8>

0000072e <USART_SendData>:
     72e:	1ff5f593          	andi	a1,a1,511
     732:	a14e                	sh	a1,4(a0)
     734:	8082                	ret

00000736 <USART_GetFlagStatus>:
     736:	210a                	lhu	a0,0(a0)
     738:	8d6d                	and	a0,a0,a1
     73a:	00a03533          	snez	a0,a0
     73e:	8082                	ret

00000740 <LCD_1IN47_SendCommand>:
     740:	9f1ff2ef          	jal	t0,130 <__riscv_save_0>
     744:	400117b7          	lui	a5,0x40011
     748:	4721                	li	a4,8
     74a:	cbd8                	sw	a4,20(a5)
     74c:	4709                	li	a4,2
     74e:	80e7aa23          	sw	a4,-2028(a5) # 40010814 <_eusrstack+0x2000b814>
     752:	5e0000ef          	jal	ra,d32 <SPI1_Write>
     756:	bafd                	j	154 <__riscv_restore_0>

00000758 <LCD_1IN47_SendData_8Bit>:
     758:	9d9ff2ef          	jal	t0,130 <__riscv_save_0>
     75c:	400117b7          	lui	a5,0x40011
     760:	4721                	li	a4,8
     762:	cb98                	sw	a4,16(a5)
     764:	5ce000ef          	jal	ra,d32 <SPI1_Write>
     768:	b2f5                	j	154 <__riscv_restore_0>

0000076a <LCD_1IN47_SendData_16Bit>:
     76a:	9c7ff2ef          	jal	t0,130 <__riscv_save_0>
     76e:	40011437          	lui	s0,0x40011
     772:	47a1                	li	a5,8
     774:	c81c                	sw	a5,16(s0)
     776:	4489                	li	s1,2
     778:	80942a23          	sw	s1,-2028(s0) # 40010814 <_eusrstack+0x2000b814>
     77c:	892a                	mv	s2,a0
     77e:	8121                	srli	a0,a0,0x8
     780:	5b2000ef          	jal	ra,d32 <SPI1_Write>
     784:	0ff97513          	andi	a0,s2,255
     788:	5aa000ef          	jal	ra,d32 <SPI1_Write>
     78c:	80040413          	addi	s0,s0,-2048
     790:	c804                	sw	s1,16(s0)
     792:	b2c9                	j	154 <__riscv_restore_0>

00000794 <LCD_GPIOInit>:
     794:	99dff2ef          	jal	t0,130 <__riscv_save_0>
     798:	1141                	addi	sp,sp,-16
     79a:	4585                	li	a1,1
     79c:	4541                	li	a0,16
     79e:	35ad                	jal	608 <RCC_APB2PeriphClockCmd>
     7a0:	4585                	li	a1,1
     7a2:	4541                	li	a0,16
     7a4:	3595                	jal	608 <RCC_APB2PeriphClockCmd>
     7a6:	4585                	li	a1,1
     7a8:	4541                	li	a0,16
     7aa:	3db9                	jal	608 <RCC_APB2PeriphClockCmd>
     7ac:	4585                	li	a1,1
     7ae:	4511                	li	a0,4
     7b0:	3da1                	jal	608 <RCC_APB2PeriphClockCmd>
     7b2:	4441                	li	s0,16
     7b4:	448d                	li	s1,3
     7b6:	47c1                	li	a5,16
     7b8:	004c                	addi	a1,sp,4
     7ba:	40011537          	lui	a0,0x40011
     7be:	827c                	sh	a5,4(sp)
     7c0:	c426                	sw	s1,8(sp)
     7c2:	c622                	sw	s0,12(sp)
     7c4:	3951                	jal	458 <GPIO_Init>
     7c6:	47a1                	li	a5,8
     7c8:	004c                	addi	a1,sp,4
     7ca:	40011537          	lui	a0,0x40011
     7ce:	827c                	sh	a5,4(sp)
     7d0:	c426                	sw	s1,8(sp)
     7d2:	c622                	sw	s0,12(sp)
     7d4:	3151                	jal	458 <GPIO_Init>
     7d6:	4791                	li	a5,4
     7d8:	004c                	addi	a1,sp,4
     7da:	40011537          	lui	a0,0x40011
     7de:	827c                	sh	a5,4(sp)
     7e0:	c426                	sw	s1,8(sp)
     7e2:	c622                	sw	s0,12(sp)
     7e4:	3995                	jal	458 <GPIO_Init>
     7e6:	40011537          	lui	a0,0x40011
     7ea:	4789                	li	a5,2
     7ec:	004c                	addi	a1,sp,4
     7ee:	80050513          	addi	a0,a0,-2048 # 40010800 <_eusrstack+0x2000b800>
     7f2:	827c                	sh	a5,4(sp)
     7f4:	c426                	sw	s1,8(sp)
     7f6:	c622                	sw	s0,12(sp)
     7f8:	3185                	jal	458 <GPIO_Init>
     7fa:	0141                	addi	sp,sp,16
     7fc:	baa1                	j	154 <__riscv_restore_0>

000007fe <Color_Interpolate>:
     7fe:	919ff2ef          	jal	t0,116 <__riscv_save_4>
     802:	000047b7          	lui	a5,0x4
     806:	892a                	mv	s2,a0
     808:	bcc7a503          	lw	a0,-1076(a5) # 3bcc <_read+0x1c>
     80c:	84ae                	mv	s1,a1
     80e:	85b2                	mv	a1,a2
     810:	89b2                	mv	s3,a2
     812:	3a3010ef          	jal	ra,23b4 <__subsf3>
     816:	8a2a                	mv	s4,a0
     818:	00b95513          	srli	a0,s2,0xb
     81c:	777010ef          	jal	ra,2792 <__floatsisf>
     820:	85d2                	mv	a1,s4
     822:	0ff010ef          	jal	ra,2120 <__mulsf3>
     826:	842a                	mv	s0,a0
     828:	00b4d513          	srli	a0,s1,0xb
     82c:	767010ef          	jal	ra,2792 <__floatsisf>
     830:	85ce                	mv	a1,s3
     832:	0ef010ef          	jal	ra,2120 <__mulsf3>
     836:	85aa                	mv	a1,a0
     838:	8522                	mv	a0,s0
     83a:	23e010ef          	jal	ra,1a78 <__addsf3>
     83e:	6ff010ef          	jal	ra,273c <__fixunssfsi>
     842:	0ff57413          	andi	s0,a0,255
     846:	01f97513          	andi	a0,s2,31
     84a:	749010ef          	jal	ra,2792 <__floatsisf>
     84e:	85d2                	mv	a1,s4
     850:	0d1010ef          	jal	ra,2120 <__mulsf3>
     854:	8aaa                	mv	s5,a0
     856:	01f4f513          	andi	a0,s1,31
     85a:	739010ef          	jal	ra,2792 <__floatsisf>
     85e:	85ce                	mv	a1,s3
     860:	0c1010ef          	jal	ra,2120 <__mulsf3>
     864:	85aa                	mv	a1,a0
     866:	8556                	mv	a0,s5
     868:	210010ef          	jal	ra,1a78 <__addsf3>
     86c:	6d1010ef          	jal	ra,273c <__fixunssfsi>
     870:	0ff57513          	andi	a0,a0,255
     874:	042e                	slli	s0,s0,0xb
     876:	8c49                	or	s0,s0,a0
     878:	00595513          	srli	a0,s2,0x5
     87c:	03f57513          	andi	a0,a0,63
     880:	713010ef          	jal	ra,2792 <__floatsisf>
     884:	85d2                	mv	a1,s4
     886:	09b010ef          	jal	ra,2120 <__mulsf3>
     88a:	892a                	mv	s2,a0
     88c:	0054d513          	srli	a0,s1,0x5
     890:	03f57513          	andi	a0,a0,63
     894:	6ff010ef          	jal	ra,2792 <__floatsisf>
     898:	85ce                	mv	a1,s3
     89a:	087010ef          	jal	ra,2120 <__mulsf3>
     89e:	85aa                	mv	a1,a0
     8a0:	854a                	mv	a0,s2
     8a2:	1d6010ef          	jal	ra,1a78 <__addsf3>
     8a6:	697010ef          	jal	ra,273c <__fixunssfsi>
     8aa:	0ff57513          	andi	a0,a0,255
     8ae:	0516                	slli	a0,a0,0x5
     8b0:	8d41                	or	a0,a0,s0
     8b2:	0542                	slli	a0,a0,0x10
     8b4:	8141                	srli	a0,a0,0x10
     8b6:	895ff06f          	j	14a <__riscv_restore_4>

000008ba <LCD_1IN47_Init>:
     8ba:	877ff2ef          	jal	t0,130 <__riscv_save_0>
     8be:	84aa                	mv	s1,a0
     8c0:	2ef1                	jal	c9c <SPI1_Init>
     8c2:	3dc9                	jal	794 <LCD_GPIOInit>
     8c4:	40011437          	lui	s0,0x40011
     8c8:	47c1                	li	a5,16
     8ca:	c81c                	sw	a5,16(s0)
     8cc:	4709                	li	a4,2
     8ce:	80e42823          	sw	a4,-2032(s0) # 40010810 <_eusrstack+0x2000b810>
     8d2:	47a1                	li	a5,8
     8d4:	c81c                	sw	a5,16(s0)
     8d6:	4911                	li	s2,4
     8d8:	01242823          	sw	s2,16(s0)
     8dc:	06400513          	li	a0,100
     8e0:	01242823          	sw	s2,16(s0)
     8e4:	216d                	jal	d8e <Delay_Ms>
     8e6:	06400513          	li	a0,100
     8ea:	01242a23          	sw	s2,20(s0)
     8ee:	2145                	jal	d8e <Delay_Ms>
     8f0:	06400513          	li	a0,100
     8f4:	01242823          	sw	s2,16(s0)
     8f8:	2959                	jal	d8e <Delay_Ms>
     8fa:	81c18793          	addi	a5,gp,-2020 # 2000009c <LCD_1IN47>
     8fe:	a3c4                	sb	s1,4(a5)
     900:	16049463          	bnez	s1,a68 <LCD_1IN47_Init+0x1ae>
     904:	01400737          	lui	a4,0x1400
     908:	0ac70713          	addi	a4,a4,172 # 14000ac <_data_lma+0x13fc238>
     90c:	c398                	sw	a4,0(a5)
     90e:	03600513          	li	a0,54
     912:	353d                	jal	740 <LCD_1IN47_SendCommand>
     914:	8526                	mv	a0,s1
     916:	3589                	jal	758 <LCD_1IN47_SendData_8Bit>
     918:	4545                	li	a0,17
     91a:	351d                	jal	740 <LCD_1IN47_SendCommand>
     91c:	07800513          	li	a0,120
     920:	21bd                	jal	d8e <Delay_Ms>
     922:	03a00513          	li	a0,58
     926:	3d29                	jal	740 <LCD_1IN47_SendCommand>
     928:	4515                	li	a0,5
     92a:	353d                	jal	758 <LCD_1IN47_SendData_8Bit>
     92c:	0b200513          	li	a0,178
     930:	3d01                	jal	740 <LCD_1IN47_SendCommand>
     932:	4531                	li	a0,12
     934:	3515                	jal	758 <LCD_1IN47_SendData_8Bit>
     936:	4531                	li	a0,12
     938:	3505                	jal	758 <LCD_1IN47_SendData_8Bit>
     93a:	4501                	li	a0,0
     93c:	3d31                	jal	758 <LCD_1IN47_SendData_8Bit>
     93e:	03300513          	li	a0,51
     942:	3d19                	jal	758 <LCD_1IN47_SendData_8Bit>
     944:	03300513          	li	a0,51
     948:	3d01                	jal	758 <LCD_1IN47_SendData_8Bit>
     94a:	0b700513          	li	a0,183
     94e:	3bcd                	jal	740 <LCD_1IN47_SendCommand>
     950:	03500513          	li	a0,53
     954:	3511                	jal	758 <LCD_1IN47_SendData_8Bit>
     956:	0bb00513          	li	a0,187
     95a:	33dd                	jal	740 <LCD_1IN47_SendCommand>
     95c:	03500513          	li	a0,53
     960:	3be5                	jal	758 <LCD_1IN47_SendData_8Bit>
     962:	0c000513          	li	a0,192
     966:	3be9                	jal	740 <LCD_1IN47_SendCommand>
     968:	02c00513          	li	a0,44
     96c:	33f5                	jal	758 <LCD_1IN47_SendData_8Bit>
     96e:	0c200513          	li	a0,194
     972:	33f9                	jal	740 <LCD_1IN47_SendCommand>
     974:	4505                	li	a0,1
     976:	33cd                	jal	758 <LCD_1IN47_SendData_8Bit>
     978:	0c300513          	li	a0,195
     97c:	33d1                	jal	740 <LCD_1IN47_SendCommand>
     97e:	454d                	li	a0,19
     980:	3be1                	jal	758 <LCD_1IN47_SendData_8Bit>
     982:	0c400513          	li	a0,196
     986:	3b6d                	jal	740 <LCD_1IN47_SendCommand>
     988:	02000513          	li	a0,32
     98c:	33f1                	jal	758 <LCD_1IN47_SendData_8Bit>
     98e:	0c600513          	li	a0,198
     992:	337d                	jal	740 <LCD_1IN47_SendCommand>
     994:	453d                	li	a0,15
     996:	33c9                	jal	758 <LCD_1IN47_SendData_8Bit>
     998:	0d000513          	li	a0,208
     99c:	3355                	jal	740 <LCD_1IN47_SendCommand>
     99e:	0a400513          	li	a0,164
     9a2:	3b5d                	jal	758 <LCD_1IN47_SendData_8Bit>
     9a4:	0a100513          	li	a0,161
     9a8:	3b45                	jal	758 <LCD_1IN47_SendData_8Bit>
     9aa:	0d600513          	li	a0,214
     9ae:	3b49                	jal	740 <LCD_1IN47_SendCommand>
     9b0:	0a100513          	li	a0,161
     9b4:	3355                	jal	758 <LCD_1IN47_SendData_8Bit>
     9b6:	0e000513          	li	a0,224
     9ba:	3359                	jal	740 <LCD_1IN47_SendCommand>
     9bc:	0f000513          	li	a0,240
     9c0:	3b61                	jal	758 <LCD_1IN47_SendData_8Bit>
     9c2:	4501                	li	a0,0
     9c4:	3b51                	jal	758 <LCD_1IN47_SendData_8Bit>
     9c6:	4511                	li	a0,4
     9c8:	3b41                	jal	758 <LCD_1IN47_SendData_8Bit>
     9ca:	4511                	li	a0,4
     9cc:	3371                	jal	758 <LCD_1IN47_SendData_8Bit>
     9ce:	4511                	li	a0,4
     9d0:	3361                	jal	758 <LCD_1IN47_SendData_8Bit>
     9d2:	4515                	li	a0,5
     9d4:	3351                	jal	758 <LCD_1IN47_SendData_8Bit>
     9d6:	02900513          	li	a0,41
     9da:	3bbd                	jal	758 <LCD_1IN47_SendData_8Bit>
     9dc:	03300513          	li	a0,51
     9e0:	3ba5                	jal	758 <LCD_1IN47_SendData_8Bit>
     9e2:	03e00513          	li	a0,62
     9e6:	3b8d                	jal	758 <LCD_1IN47_SendData_8Bit>
     9e8:	03800513          	li	a0,56
     9ec:	33b5                	jal	758 <LCD_1IN47_SendData_8Bit>
     9ee:	4549                	li	a0,18
     9f0:	33a5                	jal	758 <LCD_1IN47_SendData_8Bit>
     9f2:	4549                	li	a0,18
     9f4:	3395                	jal	758 <LCD_1IN47_SendData_8Bit>
     9f6:	02800513          	li	a0,40
     9fa:	3bb9                	jal	758 <LCD_1IN47_SendData_8Bit>
     9fc:	03000513          	li	a0,48
     a00:	3ba1                	jal	758 <LCD_1IN47_SendData_8Bit>
     a02:	0e100513          	li	a0,225
     a06:	3b2d                	jal	740 <LCD_1IN47_SendCommand>
     a08:	0f000513          	li	a0,240
     a0c:	33b1                	jal	758 <LCD_1IN47_SendData_8Bit>
     a0e:	451d                	li	a0,7
     a10:	33a1                	jal	758 <LCD_1IN47_SendData_8Bit>
     a12:	4529                	li	a0,10
     a14:	3391                	jal	758 <LCD_1IN47_SendData_8Bit>
     a16:	4535                	li	a0,13
     a18:	3381                	jal	758 <LCD_1IN47_SendData_8Bit>
     a1a:	452d                	li	a0,11
     a1c:	3b35                	jal	758 <LCD_1IN47_SendData_8Bit>
     a1e:	451d                	li	a0,7
     a20:	3b25                	jal	758 <LCD_1IN47_SendData_8Bit>
     a22:	02800513          	li	a0,40
     a26:	3b0d                	jal	758 <LCD_1IN47_SendData_8Bit>
     a28:	03300513          	li	a0,51
     a2c:	3335                	jal	758 <LCD_1IN47_SendData_8Bit>
     a2e:	03e00513          	li	a0,62
     a32:	331d                	jal	758 <LCD_1IN47_SendData_8Bit>
     a34:	03600513          	li	a0,54
     a38:	3305                	jal	758 <LCD_1IN47_SendData_8Bit>
     a3a:	4551                	li	a0,20
     a3c:	3b31                	jal	758 <LCD_1IN47_SendData_8Bit>
     a3e:	4551                	li	a0,20
     a40:	3b21                	jal	758 <LCD_1IN47_SendData_8Bit>
     a42:	02900513          	li	a0,41
     a46:	3b09                	jal	758 <LCD_1IN47_SendData_8Bit>
     a48:	03200513          	li	a0,50
     a4c:	3331                	jal	758 <LCD_1IN47_SendData_8Bit>
     a4e:	02100513          	li	a0,33
     a52:	31fd                	jal	740 <LCD_1IN47_SendCommand>
     a54:	4545                	li	a0,17
     a56:	31ed                	jal	740 <LCD_1IN47_SendCommand>
     a58:	07800513          	li	a0,120
     a5c:	2e0d                	jal	d8e <Delay_Ms>
     a5e:	02900513          	li	a0,41
     a62:	39f9                	jal	740 <LCD_1IN47_SendCommand>
     a64:	ef0ff06f          	j	154 <__riscv_restore_0>
     a68:	00ac0737          	lui	a4,0xac0
     a6c:	14070713          	addi	a4,a4,320 # ac0140 <_data_lma+0xabc2cc>
     a70:	c398                	sw	a4,0(a5)
     a72:	07000493          	li	s1,112
     a76:	bd61                	j	90e <LCD_1IN47_Init+0x54>

00000a78 <LCD_1IN47_SetWindows>:
     a78:	e9eff2ef          	jal	t0,116 <__riscv_save_4>
     a7c:	8201c783          	lbu	a5,-2016(gp) # 200000a0 <LCD_1IN47+0x4>
     a80:	1141                	addi	sp,sp,-16
     a82:	84b2                	mv	s1,a2
     a84:	8436                	mv	s0,a3
     a86:	0ff57a93          	andi	s5,a0,255
     a8a:	0ff67993          	andi	s3,a2,255
     a8e:	0ff5fa13          	andi	s4,a1,255
     a92:	0ff6f913          	andi	s2,a3,255
     a96:	efb1                	bnez	a5,af2 <LCD_1IN47_SetWindows+0x7a>
     a98:	02a00513          	li	a0,42
     a9c:	3155                	jal	740 <LCD_1IN47_SendCommand>
     a9e:	4501                	li	a0,0
     aa0:	3965                	jal	758 <LCD_1IN47_SendData_8Bit>
     aa2:	022a8513          	addi	a0,s5,34
     aa6:	0ff57513          	andi	a0,a0,255
     aaa:	317d                	jal	758 <LCD_1IN47_SendData_8Bit>
     aac:	02148513          	addi	a0,s1,33
     ab0:	8521                	srai	a0,a0,0x8
     ab2:	0ff57513          	andi	a0,a0,255
     ab6:	314d                	jal	758 <LCD_1IN47_SendData_8Bit>
     ab8:	02198513          	addi	a0,s3,33
     abc:	0ff57513          	andi	a0,a0,255
     ac0:	3961                	jal	758 <LCD_1IN47_SendData_8Bit>
     ac2:	02b00513          	li	a0,43
     ac6:	39ad                	jal	740 <LCD_1IN47_SendCommand>
     ac8:	4501                	li	a0,0
     aca:	3179                	jal	758 <LCD_1IN47_SendData_8Bit>
     acc:	8552                	mv	a0,s4
     ace:	3169                	jal	758 <LCD_1IN47_SendData_8Bit>
     ad0:	fff40513          	addi	a0,s0,-1
     ad4:	8521                	srai	a0,a0,0x8
     ad6:	0ff57513          	andi	a0,a0,255
     ada:	39bd                	jal	758 <LCD_1IN47_SendData_8Bit>
     adc:	fff90513          	addi	a0,s2,-1
     ae0:	0ff57513          	andi	a0,a0,255
     ae4:	3995                	jal	758 <LCD_1IN47_SendData_8Bit>
     ae6:	02c00513          	li	a0,44
     aea:	3999                	jal	740 <LCD_1IN47_SendCommand>
     aec:	0141                	addi	sp,sp,16
     aee:	e5cff06f          	j	14a <__riscv_restore_4>
     af2:	8b2a                	mv	s6,a0
     af4:	02a00513          	li	a0,42
     af8:	c62e                	sw	a1,12(sp)
     afa:	3199                	jal	740 <LCD_1IN47_SendCommand>
     afc:	008b5513          	srli	a0,s6,0x8
     b00:	39a1                	jal	758 <LCD_1IN47_SendData_8Bit>
     b02:	8556                	mv	a0,s5
     b04:	3991                	jal	758 <LCD_1IN47_SendData_8Bit>
     b06:	fff48513          	addi	a0,s1,-1
     b0a:	8521                	srai	a0,a0,0x8
     b0c:	0ff57513          	andi	a0,a0,255
     b10:	31a1                	jal	758 <LCD_1IN47_SendData_8Bit>
     b12:	fff98513          	addi	a0,s3,-1
     b16:	0ff57513          	andi	a0,a0,255
     b1a:	393d                	jal	758 <LCD_1IN47_SendData_8Bit>
     b1c:	02b00513          	li	a0,43
     b20:	3105                	jal	740 <LCD_1IN47_SendCommand>
     b22:	45b2                	lw	a1,12(sp)
     b24:	0085d513          	srli	a0,a1,0x8
     b28:	3905                	jal	758 <LCD_1IN47_SendData_8Bit>
     b2a:	022a0513          	addi	a0,s4,34
     b2e:	0ff57513          	andi	a0,a0,255
     b32:	311d                	jal	758 <LCD_1IN47_SendData_8Bit>
     b34:	02140513          	addi	a0,s0,33
     b38:	8521                	srai	a0,a0,0x8
     b3a:	0ff57513          	andi	a0,a0,255
     b3e:	3929                	jal	758 <LCD_1IN47_SendData_8Bit>
     b40:	02190513          	addi	a0,s2,33
     b44:	bf71                	j	ae0 <LCD_1IN47_SetWindows+0x68>

00000b46 <LCD_1IN47_Clear>:
     b46:	dd0ff2ef          	jal	t0,116 <__riscv_save_4>
     b4a:	81c18793          	addi	a5,gp,-2020 # 2000009c <LCD_1IN47>
     b4e:	23b6                	lhu	a3,2(a5)
     b50:	2392                	lhu	a2,0(a5)
     b52:	892a                	mv	s2,a0
     b54:	4581                	li	a1,0
     b56:	4501                	li	a0,0
     b58:	3705                	jal	a78 <LCD_1IN47_SetWindows>
     b5a:	400117b7          	lui	a5,0x40011
     b5e:	4721                	li	a4,8
     b60:	00895993          	srli	s3,s2,0x8
     b64:	cb98                	sw	a4,16(a5)
     b66:	14000493          	li	s1,320
     b6a:	0ff97913          	andi	s2,s2,255
     b6e:	0ac00413          	li	s0,172
     b72:	854e                	mv	a0,s3
     b74:	147d                	addi	s0,s0,-1
     b76:	2a75                	jal	d32 <SPI1_Write>
     b78:	0442                	slli	s0,s0,0x10
     b7a:	854a                	mv	a0,s2
     b7c:	8041                	srli	s0,s0,0x10
     b7e:	2a55                	jal	d32 <SPI1_Write>
     b80:	f86d                	bnez	s0,b72 <LCD_1IN47_Clear+0x2c>
     b82:	14fd                	addi	s1,s1,-1
     b84:	04c2                	slli	s1,s1,0x10
     b86:	80c1                	srli	s1,s1,0x10
     b88:	f0fd                	bnez	s1,b6e <LCD_1IN47_Clear+0x28>
     b8a:	dc0ff06f          	j	14a <__riscv_restore_4>

00000b8e <Draw_Solid_Heart>:
     b8e:	d72ff2ef          	jal	t0,100 <__riscv_save_12>
     b92:	1141                	addi	sp,sp,-16
     b94:	0ac00693          	li	a3,172
     b98:	14000613          	li	a2,320
     b9c:	4581                	li	a1,0
     b9e:	4501                	li	a0,0
     ba0:	3de1                	jal	a78 <LCD_1IN47_SetWindows>
     ba2:	000047b7          	lui	a5,0x4
     ba6:	bd07ac03          	lw	s8,-1072(a5) # 3bd0 <_read+0x20>
     baa:	000047b7          	lui	a5,0x4
     bae:	bd47aa83          	lw	s5,-1068(a5) # 3bd4 <_read+0x24>
     bb2:	000047b7          	lui	a5,0x4
     bb6:	bcc7ab83          	lw	s7,-1076(a5) # 3bcc <_read+0x1c>
     bba:	6a19                	lui	s4,0x6
     bbc:	69c1                	lui	s3,0x10
     bbe:	4401                	li	s0,0
     bc0:	d3ca0a13          	addi	s4,s4,-708 # 5d3c <_data_lma+0x1ec8>
     bc4:	8b56                	mv	s6,s5
     bc6:	d8098993          	addi	s3,s3,-640 # fd80 <_data_lma+0xbf0c>
     bca:	8522                	mv	a0,s0
     bcc:	3c7010ef          	jal	ra,2792 <__floatsisf>
     bd0:	85e2                	mv	a1,s8
     bd2:	210010ef          	jal	ra,1de2 <__divsf3>
     bd6:	862a                	mv	a2,a0
     bd8:	6509                	lui	a0,0x2
     bda:	85d2                	mv	a1,s4
     bdc:	12850513          	addi	a0,a0,296 # 2128 <__mulsf3+0x8>
     be0:	3939                	jal	7fe <Color_Interpolate>
     be2:	8daa                	mv	s11,a0
     be4:	fab40513          	addi	a0,s0,-85
     be8:	3ab010ef          	jal	ra,2792 <__floatsisf>
     bec:	85d6                	mv	a1,s5
     bee:	1f4010ef          	jal	ra,1de2 <__divsf3>
     bf2:	85aa                	mv	a1,a0
     bf4:	892a                	mv	s2,a0
     bf6:	52a010ef          	jal	ra,2120 <__mulsf3>
     bfa:	8d2a                	mv	s10,a0
     bfc:	f6000493          	li	s1,-160
     c00:	0a000c93          	li	s9,160
     c04:	8526                	mv	a0,s1
     c06:	38d010ef          	jal	ra,2792 <__floatsisf>
     c0a:	85da                	mv	a1,s6
     c0c:	1d6010ef          	jal	ra,1de2 <__divsf3>
     c10:	85aa                	mv	a1,a0
     c12:	50e010ef          	jal	ra,2120 <__mulsf3>
     c16:	85ea                	mv	a1,s10
     c18:	c62a                	sw	a0,12(sp)
     c1a:	65f000ef          	jal	ra,1a78 <__addsf3>
     c1e:	85de                	mv	a1,s7
     c20:	794010ef          	jal	ra,23b4 <__subsf3>
     c24:	435010ef          	jal	ra,2858 <__extendsfdf2>
     c28:	862a                	mv	a2,a0
     c2a:	86ae                	mv	a3,a1
     c2c:	c02a                	sw	a0,0(sp)
     c2e:	c22e                	sw	a1,4(sp)
     c30:	2c89                	jal	e82 <__muldf3>
     c32:	4702                	lw	a4,0(sp)
     c34:	4792                	lw	a5,4(sp)
     c36:	862a                	mv	a2,a0
     c38:	86ae                	mv	a3,a1
     c3a:	853a                	mv	a0,a4
     c3c:	85be                	mv	a1,a5
     c3e:	2491                	jal	e82 <__muldf3>
     c40:	4832                	lw	a6,12(sp)
     c42:	c02a                	sw	a0,0(sp)
     c44:	c22e                	sw	a1,4(sp)
     c46:	8542                	mv	a0,a6
     c48:	85ca                	mv	a1,s2
     c4a:	4d6010ef          	jal	ra,2120 <__mulsf3>
     c4e:	85ca                	mv	a1,s2
     c50:	4d0010ef          	jal	ra,2120 <__mulsf3>
     c54:	85ca                	mv	a1,s2
     c56:	4ca010ef          	jal	ra,2120 <__mulsf3>
     c5a:	3ff010ef          	jal	ra,2858 <__extendsfdf2>
     c5e:	4702                	lw	a4,0(sp)
     c60:	4792                	lw	a5,4(sp)
     c62:	862a                	mv	a2,a0
     c64:	86ae                	mv	a3,a1
     c66:	853a                	mv	a0,a4
     c68:	85be                	mv	a1,a5
     c6a:	2dc1                	jal	133a <__subdf3>
     c6c:	499010ef          	jal	ra,2904 <__truncdfsf2>
     c70:	00000593          	li	a1,0
     c74:	420010ef          	jal	ra,2094 <__lesf2>
     c78:	02055063          	bgez	a0,c98 <Draw_Solid_Heart+0x10a>
     c7c:	854e                	mv	a0,s3
     c7e:	0485                	addi	s1,s1,1
     c80:	aebff0ef          	jal	ra,76a <LCD_1IN47_SendData_16Bit>
     c84:	f99490e3          	bne	s1,s9,c04 <Draw_Solid_Heart+0x76>
     c88:	0405                	addi	s0,s0,1
     c8a:	0ac00793          	li	a5,172
     c8e:	f2f41ee3          	bne	s0,a5,bca <Draw_Solid_Heart+0x3c>
     c92:	0141                	addi	sp,sp,16
     c94:	ca8ff06f          	j	13c <__riscv_restore_12>
     c98:	856e                	mv	a0,s11
     c9a:	b7d5                	j	c7e <Draw_Solid_Heart+0xf0>

00000c9c <SPI1_Init>:
     c9c:	c94ff2ef          	jal	t0,130 <__riscv_save_0>
     ca0:	6505                	lui	a0,0x1
     ca2:	1101                	addi	sp,sp,-32
     ca4:	4585                	li	a1,1
     ca6:	0511                	addi	a0,a0,4
     ca8:	40011437          	lui	s0,0x40011
     cac:	c002                	sw	zero,0(sp)
     cae:	c202                	sw	zero,4(sp)
     cb0:	c402                	sw	zero,8(sp)
     cb2:	c602                	sw	zero,12(sp)
     cb4:	c802                	sw	zero,16(sp)
     cb6:	ca02                	sw	zero,20(sp)
     cb8:	cc02                	sw	zero,24(sp)
     cba:	00011e23          	sh	zero,28(sp)
     cbe:	94bff0ef          	jal	ra,608 <RCC_APB2PeriphClockCmd>
     cc2:	02000793          	li	a5,32
     cc6:	4961                	li	s2,24
     cc8:	448d                	li	s1,3
     cca:	858a                	mv	a1,sp
     ccc:	80040513          	addi	a0,s0,-2048 # 40010800 <_eusrstack+0x2000b800>
     cd0:	807c                	sh	a5,0(sp)
     cd2:	c44a                	sw	s2,8(sp)
     cd4:	c226                	sw	s1,4(sp)
     cd6:	f82ff0ef          	jal	ra,458 <GPIO_Init>
     cda:	04000793          	li	a5,64
     cde:	807c                	sh	a5,0(sp)
     ce0:	858a                	mv	a1,sp
     ce2:	4791                	li	a5,4
     ce4:	80040513          	addi	a0,s0,-2048
     ce8:	c43e                	sw	a5,8(sp)
     cea:	f6eff0ef          	jal	ra,458 <GPIO_Init>
     cee:	08000793          	li	a5,128
     cf2:	858a                	mv	a1,sp
     cf4:	80040513          	addi	a0,s0,-2048
     cf8:	807c                	sh	a5,0(sp)
     cfa:	c44a                	sw	s2,8(sp)
     cfc:	c226                	sw	s1,4(sp)
     cfe:	f5aff0ef          	jal	ra,458 <GPIO_Init>
     d02:	010407b7          	lui	a5,0x1040
     d06:	c63e                	sw	a5,12(sp)
     d08:	020007b7          	lui	a5,0x2000
     d0c:	ca3e                	sw	a5,20(sp)
     d0e:	47a1                	li	a5,8
     d10:	cc3e                	sw	a5,24(sp)
     d12:	006c                	addi	a1,sp,12
     d14:	479d                	li	a5,7
     d16:	40013537          	lui	a0,0x40013
     d1a:	86fc                	sh	a5,28(sp)
     d1c:	c802                	sw	zero,16(sp)
     d1e:	909ff0ef          	jal	ra,626 <SPI_Init>
     d22:	4585                	li	a1,1
     d24:	40013537          	lui	a0,0x40013
     d28:	93dff0ef          	jal	ra,664 <SPI_Cmd>
     d2c:	6105                	addi	sp,sp,32
     d2e:	c26ff06f          	j	154 <__riscv_restore_0>

00000d32 <SPI1_Write>:
     d32:	bfeff2ef          	jal	t0,130 <__riscv_save_0>
     d36:	842a                	mv	s0,a0
     d38:	4589                	li	a1,2
     d3a:	40013537          	lui	a0,0x40013
     d3e:	945ff0ef          	jal	ra,682 <SPI_I2S_GetFlagStatus>
     d42:	d97d                	beqz	a0,d38 <SPI1_Write+0x6>
     d44:	85a2                	mv	a1,s0
     d46:	40013537          	lui	a0,0x40013
     d4a:	935ff0ef          	jal	ra,67e <SPI_I2S_SendData>
     d4e:	4405                	li	s0,1
     d50:	08000593          	li	a1,128
     d54:	40013537          	lui	a0,0x40013
     d58:	92bff0ef          	jal	ra,682 <SPI_I2S_GetFlagStatus>
     d5c:	fe850ae3          	beq	a0,s0,d50 <SPI1_Write+0x1e>
     d60:	bf4ff06f          	j	154 <__riscv_restore_0>

00000d64 <Delay_Init>:
     d64:	200007b7          	lui	a5,0x20000
     d68:	0807a783          	lw	a5,128(a5) # 20000080 <SystemCoreClock>
     d6c:	007a1737          	lui	a4,0x7a1
     d70:	20070713          	addi	a4,a4,512 # 7a1200 <_data_lma+0x79d38c>
     d74:	02e7d7b3          	divu	a5,a5,a4
     d78:	0ff7f793          	andi	a5,a5,255
     d7c:	82f18223          	sb	a5,-2012(gp) # 200000a4 <p_us>
     d80:	3e800713          	li	a4,1000
     d84:	02e787b3          	mul	a5,a5,a4
     d88:	82f19123          	sh	a5,-2014(gp) # 200000a2 <p_ms>
     d8c:	8082                	ret

00000d8e <Delay_Ms>:
     d8e:	e000f7b7          	lui	a5,0xe000f
     d92:	43d8                	lw	a4,4(a5)
     d94:	4681                	li	a3,0
     d96:	9b79                	andi	a4,a4,-2
     d98:	c3d8                	sw	a4,4(a5)
     d9a:	8221d703          	lhu	a4,-2014(gp) # 200000a2 <p_ms>
     d9e:	02a70633          	mul	a2,a4,a0
     da2:	cb90                	sw	a2,16(a5)
     da4:	cbd4                	sw	a3,20(a5)
     da6:	4398                	lw	a4,0(a5)
     da8:	01076713          	ori	a4,a4,16
     dac:	c398                	sw	a4,0(a5)
     dae:	4398                	lw	a4,0(a5)
     db0:	02176713          	ori	a4,a4,33
     db4:	c398                	sw	a4,0(a5)
     db6:	43d8                	lw	a4,4(a5)
     db8:	8b05                	andi	a4,a4,1
     dba:	df75                	beqz	a4,db6 <Delay_Ms+0x28>
     dbc:	4398                	lw	a4,0(a5)
     dbe:	9b79                	andi	a4,a4,-2
     dc0:	c398                	sw	a4,0(a5)
     dc2:	8082                	ret

00000dc4 <USART_Printf_Init>:
     dc4:	b6cff2ef          	jal	t0,130 <__riscv_save_0>
     dc8:	842a                	mv	s0,a0
     dca:	6511                	lui	a0,0x4
     dcc:	1101                	addi	sp,sp,-32
     dce:	4585                	li	a1,1
     dd0:	0511                	addi	a0,a0,4
     dd2:	837ff0ef          	jal	ra,608 <RCC_APB2PeriphClockCmd>
     dd6:	20000793          	li	a5,512
     dda:	827c                	sh	a5,4(sp)
     ddc:	40011537          	lui	a0,0x40011
     de0:	478d                	li	a5,3
     de2:	c43e                	sw	a5,8(sp)
     de4:	004c                	addi	a1,sp,4
     de6:	47e1                	li	a5,24
     de8:	80050513          	addi	a0,a0,-2048 # 40010800 <_eusrstack+0x2000b800>
     dec:	c63e                	sw	a5,12(sp)
     dee:	e6aff0ef          	jal	ra,458 <GPIO_Init>
     df2:	c822                	sw	s0,16(sp)
     df4:	40014437          	lui	s0,0x40014
     df8:	000807b7          	lui	a5,0x80
     dfc:	080c                	addi	a1,sp,16
     dfe:	80040513          	addi	a0,s0,-2048 # 40013800 <_eusrstack+0x2000e800>
     e02:	cc3e                	sw	a5,24(sp)
     e04:	ca02                	sw	zero,20(sp)
     e06:	00011e23          	sh	zero,28(sp)
     e0a:	883ff0ef          	jal	ra,68c <USART_Init>
     e0e:	4585                	li	a1,1
     e10:	80040513          	addi	a0,s0,-2048
     e14:	905ff0ef          	jal	ra,718 <USART_Cmd>
     e18:	6105                	addi	sp,sp,32
     e1a:	b3aff06f          	j	154 <__riscv_restore_0>

00000e1e <_write>:
     e1e:	af8ff2ef          	jal	t0,116 <__riscv_save_4>
     e22:	400144b7          	lui	s1,0x40014
     e26:	89ae                	mv	s3,a1
     e28:	8932                	mv	s2,a2
     e2a:	4401                	li	s0,0
     e2c:	80048493          	addi	s1,s1,-2048 # 40013800 <_eusrstack+0x2000e800>
     e30:	01244563          	blt	s0,s2,e3a <_write+0x1c>
     e34:	854a                	mv	a0,s2
     e36:	b14ff06f          	j	14a <__riscv_restore_4>
     e3a:	04000593          	li	a1,64
     e3e:	8526                	mv	a0,s1
     e40:	8f7ff0ef          	jal	ra,736 <USART_GetFlagStatus>
     e44:	d97d                	beqz	a0,e3a <_write+0x1c>
     e46:	008987b3          	add	a5,s3,s0
     e4a:	00078583          	lb	a1,0(a5) # 80000 <_data_lma+0x7c18c>
     e4e:	8526                	mv	a0,s1
     e50:	0405                	addi	s0,s0,1
     e52:	05c2                	slli	a1,a1,0x10
     e54:	81c1                	srli	a1,a1,0x10
     e56:	8d9ff0ef          	jal	ra,72e <USART_SendData>
     e5a:	bfd9                	j	e30 <_write+0x12>

00000e5c <_sbrk>:
     e5c:	80818713          	addi	a4,gp,-2040 # 20000088 <curbrk.4672>
     e60:	431c                	lw	a5,0(a4)
     e62:	83418693          	addi	a3,gp,-1996 # 200000b4 <_ebss>
     e66:	953e                	add	a0,a0,a5
     e68:	00d56b63          	bltu	a0,a3,e7e <_sbrk+0x22>
     e6c:	200056b7          	lui	a3,0x20005
     e70:	80068693          	addi	a3,a3,-2048 # 20004800 <_heap_end>
     e74:	00a6e563          	bltu	a3,a0,e7e <_sbrk+0x22>
     e78:	c308                	sw	a0,0(a4)
     e7a:	853e                	mv	a0,a5
     e7c:	8082                	ret
     e7e:	57fd                	li	a5,-1
     e80:	bfed                	j	e7a <_sbrk+0x1e>

00000e82 <__muldf3>:
     e82:	7139                	addi	sp,sp,-64
     e84:	d84a                	sw	s2,48(sp)
     e86:	0145d913          	srli	s2,a1,0x14
     e8a:	d64e                	sw	s3,44(sp)
     e8c:	d452                	sw	s4,40(sp)
     e8e:	d256                	sw	s5,36(sp)
     e90:	00c59993          	slli	s3,a1,0xc
     e94:	de06                	sw	ra,60(sp)
     e96:	dc22                	sw	s0,56(sp)
     e98:	da26                	sw	s1,52(sp)
     e9a:	d05a                	sw	s6,32(sp)
     e9c:	ce5e                	sw	s7,28(sp)
     e9e:	7ff97913          	andi	s2,s2,2047
     ea2:	8a2a                	mv	s4,a0
     ea4:	00c9d993          	srli	s3,s3,0xc
     ea8:	01f5da93          	srli	s5,a1,0x1f
     eac:	0e090d63          	beqz	s2,fa6 <__muldf3+0x124>
     eb0:	7ff00793          	li	a5,2047
     eb4:	18f90663          	beq	s2,a5,1040 <__muldf3+0x1be>
     eb8:	01d55413          	srli	s0,a0,0x1d
     ebc:	098e                	slli	s3,s3,0x3
     ebe:	013469b3          	or	s3,s0,s3
     ec2:	00800437          	lui	s0,0x800
     ec6:	0089e433          	or	s0,s3,s0
     eca:	00351493          	slli	s1,a0,0x3
     ece:	c0190913          	addi	s2,s2,-1023
     ed2:	4981                	li	s3,0
     ed4:	4b81                	li	s7,0
     ed6:	0146d713          	srli	a4,a3,0x14
     eda:	00c69a13          	slli	s4,a3,0xc
     ede:	7ff77713          	andi	a4,a4,2047
     ee2:	85b2                	mv	a1,a2
     ee4:	00ca5a13          	srli	s4,s4,0xc
     ee8:	01f6db13          	srli	s6,a3,0x1f
     eec:	10070b63          	beqz	a4,1002 <__muldf3+0x180>
     ef0:	7ff00793          	li	a5,2047
     ef4:	04f70363          	beq	a4,a5,f3a <__muldf3+0xb8>
     ef8:	01d65793          	srli	a5,a2,0x1d
     efc:	0a0e                	slli	s4,s4,0x3
     efe:	0147ea33          	or	s4,a5,s4
     f02:	c0170713          	addi	a4,a4,-1023
     f06:	008007b7          	lui	a5,0x800
     f0a:	00fa67b3          	or	a5,s4,a5
     f0e:	00361593          	slli	a1,a2,0x3
     f12:	993a                	add	s2,s2,a4
     f14:	4881                	li	a7,0
     f16:	016ac733          	xor	a4,s5,s6
     f1a:	46bd                	li	a3,15
     f1c:	853a                	mv	a0,a4
     f1e:	00190813          	addi	a6,s2,1
     f22:	1736e863          	bltu	a3,s3,1092 <__muldf3+0x210>
     f26:	00003617          	auipc	a2,0x3
     f2a:	cb260613          	addi	a2,a2,-846 # 3bd8 <_read+0x28>
     f2e:	098a                	slli	s3,s3,0x2
     f30:	99b2                	add	s3,s3,a2
     f32:	0009a683          	lw	a3,0(s3)
     f36:	96b2                	add	a3,a3,a2
     f38:	8682                	jr	a3
     f3a:	00ca67b3          	or	a5,s4,a2
     f3e:	7ff90913          	addi	s2,s2,2047
     f42:	12079963          	bnez	a5,1074 <__muldf3+0x1f2>
     f46:	0029e993          	ori	s3,s3,2
     f4a:	4581                	li	a1,0
     f4c:	4889                	li	a7,2
     f4e:	b7e1                	j	f16 <__muldf3+0x94>
     f50:	4701                	li	a4,0
     f52:	7ff00793          	li	a5,2047
     f56:	00080437          	lui	s0,0x80
     f5a:	4481                	li	s1,0
     f5c:	0432                	slli	s0,s0,0xc
     f5e:	07d2                	slli	a5,a5,0x14
     f60:	8031                	srli	s0,s0,0xc
     f62:	077e                	slli	a4,a4,0x1f
     f64:	8c5d                	or	s0,s0,a5
     f66:	8c59                	or	s0,s0,a4
     f68:	85a2                	mv	a1,s0
     f6a:	50f2                	lw	ra,60(sp)
     f6c:	5462                	lw	s0,56(sp)
     f6e:	8526                	mv	a0,s1
     f70:	5942                	lw	s2,48(sp)
     f72:	54d2                	lw	s1,52(sp)
     f74:	59b2                	lw	s3,44(sp)
     f76:	5a22                	lw	s4,40(sp)
     f78:	5a92                	lw	s5,36(sp)
     f7a:	5b02                	lw	s6,32(sp)
     f7c:	4bf2                	lw	s7,28(sp)
     f7e:	6121                	addi	sp,sp,64
     f80:	8082                	ret
     f82:	855a                	mv	a0,s6
     f84:	843e                	mv	s0,a5
     f86:	84ae                	mv	s1,a1
     f88:	8bc6                	mv	s7,a7
     f8a:	4789                	li	a5,2
     f8c:	0efb8d63          	beq	s7,a5,1086 <__muldf3+0x204>
     f90:	478d                	li	a5,3
     f92:	fafb8fe3          	beq	s7,a5,f50 <__muldf3+0xce>
     f96:	4785                	li	a5,1
     f98:	872a                	mv	a4,a0
     f9a:	38fb9e63          	bne	s7,a5,1336 <__muldf3+0x4b4>
     f9e:	4781                	li	a5,0
     fa0:	4401                	li	s0,0
     fa2:	4481                	li	s1,0
     fa4:	bf65                	j	f5c <__muldf3+0xda>
     fa6:	00a9e433          	or	s0,s3,a0
     faa:	c061                	beqz	s0,106a <__muldf3+0x1e8>
     fac:	c636                	sw	a3,12(sp)
     fae:	c432                	sw	a2,8(sp)
     fb0:	2a098c63          	beqz	s3,1268 <__muldf3+0x3e6>
     fb4:	854e                	mv	a0,s3
     fb6:	2b9010ef          	jal	ra,2a6e <__clzsi2>
     fba:	4622                	lw	a2,8(sp)
     fbc:	46b2                	lw	a3,12(sp)
     fbe:	87aa                	mv	a5,a0
     fc0:	ff550713          	addi	a4,a0,-11
     fc4:	4475                	li	s0,29
     fc6:	ff878493          	addi	s1,a5,-8 # 7ffff8 <_data_lma+0x7fc184>
     fca:	8c19                	sub	s0,s0,a4
     fcc:	009999b3          	sll	s3,s3,s1
     fd0:	008a5433          	srl	s0,s4,s0
     fd4:	01346433          	or	s0,s0,s3
     fd8:	009a14b3          	sll	s1,s4,s1
     fdc:	0146d713          	srli	a4,a3,0x14
     fe0:	c0d00913          	li	s2,-1011
     fe4:	00c69a13          	slli	s4,a3,0xc
     fe8:	7ff77713          	andi	a4,a4,2047
     fec:	40f90933          	sub	s2,s2,a5
     ff0:	4981                	li	s3,0
     ff2:	4b81                	li	s7,0
     ff4:	85b2                	mv	a1,a2
     ff6:	00ca5a13          	srli	s4,s4,0xc
     ffa:	01f6db13          	srli	s6,a3,0x1f
     ffe:	ee0719e3          	bnez	a4,ef0 <__muldf3+0x6e>
    1002:	00ca67b3          	or	a5,s4,a2
    1006:	c7b1                	beqz	a5,1052 <__muldf3+0x1d0>
    1008:	220a0f63          	beqz	s4,1246 <__muldf3+0x3c4>
    100c:	8552                	mv	a0,s4
    100e:	c432                	sw	a2,8(sp)
    1010:	25f010ef          	jal	ra,2a6e <__clzsi2>
    1014:	4622                	lw	a2,8(sp)
    1016:	872a                	mv	a4,a0
    1018:	ff550693          	addi	a3,a0,-11
    101c:	47f5                	li	a5,29
    101e:	ff870593          	addi	a1,a4,-8
    1022:	8f95                	sub	a5,a5,a3
    1024:	00ba1a33          	sll	s4,s4,a1
    1028:	00f657b3          	srl	a5,a2,a5
    102c:	0147e7b3          	or	a5,a5,s4
    1030:	00b615b3          	sll	a1,a2,a1
    1034:	40e90933          	sub	s2,s2,a4
    1038:	c0d90913          	addi	s2,s2,-1011
    103c:	4881                	li	a7,0
    103e:	bde1                	j	f16 <__muldf3+0x94>
    1040:	00a9e433          	or	s0,s3,a0
    1044:	ec01                	bnez	s0,105c <__muldf3+0x1da>
    1046:	49a1                	li	s3,8
    1048:	4481                	li	s1,0
    104a:	7ff00913          	li	s2,2047
    104e:	4b89                	li	s7,2
    1050:	b559                	j	ed6 <__muldf3+0x54>
    1052:	0019e993          	ori	s3,s3,1
    1056:	4581                	li	a1,0
    1058:	4885                	li	a7,1
    105a:	bd75                	j	f16 <__muldf3+0x94>
    105c:	844e                	mv	s0,s3
    105e:	84aa                	mv	s1,a0
    1060:	49b1                	li	s3,12
    1062:	7ff00913          	li	s2,2047
    1066:	4b8d                	li	s7,3
    1068:	b5bd                	j	ed6 <__muldf3+0x54>
    106a:	4991                	li	s3,4
    106c:	4481                	li	s1,0
    106e:	4901                	li	s2,0
    1070:	4b85                	li	s7,1
    1072:	b595                	j	ed6 <__muldf3+0x54>
    1074:	0039e993          	ori	s3,s3,3
    1078:	87d2                	mv	a5,s4
    107a:	488d                	li	a7,3
    107c:	bd69                	j	f16 <__muldf3+0x94>
    107e:	4789                	li	a5,2
    1080:	8556                	mv	a0,s5
    1082:	f0fb97e3          	bne	s7,a5,f90 <__muldf3+0x10e>
    1086:	872a                	mv	a4,a0
    1088:	7ff00793          	li	a5,2047
    108c:	4401                	li	s0,0
    108e:	4481                	li	s1,0
    1090:	b5f1                	j	f5c <__muldf3+0xda>
    1092:	6ec1                	lui	t4,0x10
    1094:	fffe8613          	addi	a2,t4,-1 # ffff <_data_lma+0xc18b>
    1098:	0104d693          	srli	a3,s1,0x10
    109c:	0105de13          	srli	t3,a1,0x10
    10a0:	8cf1                	and	s1,s1,a2
    10a2:	8df1                	and	a1,a1,a2
    10a4:	02958633          	mul	a2,a1,s1
    10a8:	02b68333          	mul	t1,a3,a1
    10ac:	01065893          	srli	a7,a2,0x10
    10b0:	029e0533          	mul	a0,t3,s1
    10b4:	951a                	add	a0,a0,t1
    10b6:	98aa                	add	a7,a7,a0
    10b8:	03c682b3          	mul	t0,a3,t3
    10bc:	0068f363          	bgeu	a7,t1,10c2 <__muldf3+0x240>
    10c0:	92f6                	add	t0,t0,t4
    10c2:	6fc1                	lui	t6,0x10
    10c4:	ffff8313          	addi	t1,t6,-1 # ffff <_data_lma+0xc18b>
    10c8:	0067f533          	and	a0,a5,t1
    10cc:	0107d393          	srli	t2,a5,0x10
    10d0:	0068f7b3          	and	a5,a7,t1
    10d4:	07c2                	slli	a5,a5,0x10
    10d6:	00667333          	and	t1,a2,t1
    10da:	933e                	add	t1,t1,a5
    10dc:	02950633          	mul	a2,a0,s1
    10e0:	0108d893          	srli	a7,a7,0x10
    10e4:	02a687b3          	mul	a5,a3,a0
    10e8:	01065f13          	srli	t5,a2,0x10
    10ec:	029384b3          	mul	s1,t2,s1
    10f0:	94be                	add	s1,s1,a5
    10f2:	94fa                	add	s1,s1,t5
    10f4:	02768eb3          	mul	t4,a3,t2
    10f8:	00f4f363          	bgeu	s1,a5,10fe <__muldf3+0x27c>
    10fc:	9efe                	add	t4,t4,t6
    10fe:	6a41                	lui	s4,0x10
    1100:	fffa0793          	addi	a5,s4,-1 # ffff <_data_lma+0xc18b>
    1104:	01045f93          	srli	t6,s0,0x10
    1108:	00f476b3          	and	a3,s0,a5
    110c:	00f4f9b3          	and	s3,s1,a5
    1110:	8e7d                	and	a2,a2,a5
    1112:	80c1                	srli	s1,s1,0x10
    1114:	02d58433          	mul	s0,a1,a3
    1118:	09c2                	slli	s3,s3,0x10
    111a:	01d48f33          	add	t5,s1,t4
    111e:	99b2                	add	s3,s3,a2
    1120:	98ce                	add	a7,a7,s3
    1122:	02de07b3          	mul	a5,t3,a3
    1126:	01045e93          	srli	t4,s0,0x10
    112a:	02bf85b3          	mul	a1,t6,a1
    112e:	97ae                	add	a5,a5,a1
    1130:	9ebe                	add	t4,t4,a5
    1132:	03fe0e33          	mul	t3,t3,t6
    1136:	00bef363          	bgeu	t4,a1,113c <__muldf3+0x2ba>
    113a:	9e52                	add	t3,t3,s4
    113c:	67c1                	lui	a5,0x10
    113e:	fff78593          	addi	a1,a5,-1 # ffff <_data_lma+0xc18b>
    1142:	00bef633          	and	a2,t4,a1
    1146:	8c6d                	and	s0,s0,a1
    1148:	0642                	slli	a2,a2,0x10
    114a:	9622                	add	a2,a2,s0
    114c:	010ede93          	srli	t4,t4,0x10
    1150:	02d505b3          	mul	a1,a0,a3
    1154:	9e76                	add	t3,t3,t4
    1156:	02af8533          	mul	a0,t6,a0
    115a:	0105d413          	srli	s0,a1,0x10
    115e:	02d386b3          	mul	a3,t2,a3
    1162:	96aa                	add	a3,a3,a0
    1164:	96a2                	add	a3,a3,s0
    1166:	03f38fb3          	mul	t6,t2,t6
    116a:	00a6f363          	bgeu	a3,a0,1170 <__muldf3+0x2ee>
    116e:	9fbe                	add	t6,t6,a5
    1170:	6541                	lui	a0,0x10
    1172:	157d                	addi	a0,a0,-1
    1174:	00a6f7b3          	and	a5,a3,a0
    1178:	07c2                	slli	a5,a5,0x10
    117a:	8d6d                	and	a0,a0,a1
    117c:	97aa                	add	a5,a5,a0
    117e:	005885b3          	add	a1,a7,t0
    1182:	0135b9b3          	sltu	s3,a1,s3
    1186:	97fa                	add	a5,a5,t5
    1188:	95b2                	add	a1,a1,a2
    118a:	01378433          	add	s0,a5,s3
    118e:	00c5b633          	sltu	a2,a1,a2
    1192:	01c40eb3          	add	t4,s0,t3
    1196:	00ce8533          	add	a0,t4,a2
    119a:	01343433          	sltu	s0,s0,s3
    119e:	01e7b7b3          	sltu	a5,a5,t5
    11a2:	8fc1                	or	a5,a5,s0
    11a4:	01cebe33          	sltu	t3,t4,t3
    11a8:	0106d413          	srli	s0,a3,0x10
    11ac:	00c53633          	sltu	a2,a0,a2
    11b0:	943e                	add	s0,s0,a5
    11b2:	00ce6633          	or	a2,t3,a2
    11b6:	00959493          	slli	s1,a1,0x9
    11ba:	9432                	add	s0,s0,a2
    11bc:	947e                	add	s0,s0,t6
    11be:	0064e4b3          	or	s1,s1,t1
    11c2:	0426                	slli	s0,s0,0x9
    11c4:	01755693          	srli	a3,a0,0x17
    11c8:	009034b3          	snez	s1,s1
    11cc:	81dd                	srli	a1,a1,0x17
    11ce:	00951793          	slli	a5,a0,0x9
    11d2:	8ccd                	or	s1,s1,a1
    11d4:	8c55                	or	s0,s0,a3
    11d6:	8cdd                	or	s1,s1,a5
    11d8:	00741793          	slli	a5,s0,0x7
    11dc:	0007db63          	bgez	a5,11f2 <__muldf3+0x370>
    11e0:	0014d793          	srli	a5,s1,0x1
    11e4:	8885                	andi	s1,s1,1
    11e6:	01f41693          	slli	a3,s0,0x1f
    11ea:	8cdd                	or	s1,s1,a5
    11ec:	8cd5                	or	s1,s1,a3
    11ee:	8005                	srli	s0,s0,0x1
    11f0:	8942                	mv	s2,a6
    11f2:	3ff90793          	addi	a5,s2,1023
    11f6:	08f05963          	blez	a5,1288 <__muldf3+0x406>
    11fa:	0074f693          	andi	a3,s1,7
    11fe:	ce81                	beqz	a3,1216 <__muldf3+0x394>
    1200:	00f4f693          	andi	a3,s1,15
    1204:	4611                	li	a2,4
    1206:	00c68863          	beq	a3,a2,1216 <__muldf3+0x394>
    120a:	00448693          	addi	a3,s1,4
    120e:	0096b4b3          	sltu	s1,a3,s1
    1212:	9426                	add	s0,s0,s1
    1214:	84b6                	mv	s1,a3
    1216:	00741693          	slli	a3,s0,0x7
    121a:	0006d863          	bgez	a3,122a <__muldf3+0x3a8>
    121e:	ff0007b7          	lui	a5,0xff000
    1222:	17fd                	addi	a5,a5,-1
    1224:	8c7d                	and	s0,s0,a5
    1226:	40090793          	addi	a5,s2,1024
    122a:	7fe00693          	li	a3,2046
    122e:	0ef6cf63          	blt	a3,a5,132c <__muldf3+0x4aa>
    1232:	0034d693          	srli	a3,s1,0x3
    1236:	01d41493          	slli	s1,s0,0x1d
    123a:	0426                	slli	s0,s0,0x9
    123c:	8cd5                	or	s1,s1,a3
    123e:	8031                	srli	s0,s0,0xc
    1240:	7ff7f793          	andi	a5,a5,2047
    1244:	bb21                	j	f5c <__muldf3+0xda>
    1246:	8532                	mv	a0,a2
    1248:	c432                	sw	a2,8(sp)
    124a:	025010ef          	jal	ra,2a6e <__clzsi2>
    124e:	01550693          	addi	a3,a0,21 # 10015 <_data_lma+0xc1a1>
    1252:	47f1                	li	a5,28
    1254:	02050713          	addi	a4,a0,32
    1258:	4622                	lw	a2,8(sp)
    125a:	dcd7d1e3          	bge	a5,a3,101c <__muldf3+0x19a>
    125e:	1561                	addi	a0,a0,-8
    1260:	00a617b3          	sll	a5,a2,a0
    1264:	4581                	li	a1,0
    1266:	b3f9                	j	1034 <__muldf3+0x1b2>
    1268:	007010ef          	jal	ra,2a6e <__clzsi2>
    126c:	01550713          	addi	a4,a0,21
    1270:	45f1                	li	a1,28
    1272:	02050793          	addi	a5,a0,32
    1276:	4622                	lw	a2,8(sp)
    1278:	46b2                	lw	a3,12(sp)
    127a:	d4e5d5e3          	bge	a1,a4,fc4 <__muldf3+0x142>
    127e:	1561                	addi	a0,a0,-8
    1280:	00aa1433          	sll	s0,s4,a0
    1284:	4481                	li	s1,0
    1286:	bb99                	j	fdc <__muldf3+0x15a>
    1288:	4685                	li	a3,1
    128a:	8e9d                	sub	a3,a3,a5
    128c:	e7b1                	bnez	a5,12d8 <__muldf3+0x456>
    128e:	41e90913          	addi	s2,s2,1054
    1292:	012497b3          	sll	a5,s1,s2
    1296:	00d4d4b3          	srl	s1,s1,a3
    129a:	01241933          	sll	s2,s0,s2
    129e:	00f037b3          	snez	a5,a5
    12a2:	009964b3          	or	s1,s2,s1
    12a6:	8cdd                	or	s1,s1,a5
    12a8:	0074f793          	andi	a5,s1,7
    12ac:	00d456b3          	srl	a3,s0,a3
    12b0:	cf81                	beqz	a5,12c8 <__muldf3+0x446>
    12b2:	00f4f793          	andi	a5,s1,15
    12b6:	4611                	li	a2,4
    12b8:	00c78863          	beq	a5,a2,12c8 <__muldf3+0x446>
    12bc:	00448793          	addi	a5,s1,4
    12c0:	0097b4b3          	sltu	s1,a5,s1
    12c4:	96a6                	add	a3,a3,s1
    12c6:	84be                	mv	s1,a5
    12c8:	00869793          	slli	a5,a3,0x8
    12cc:	0407d863          	bgez	a5,131c <__muldf3+0x49a>
    12d0:	4785                	li	a5,1
    12d2:	4401                	li	s0,0
    12d4:	4481                	li	s1,0
    12d6:	b159                	j	f5c <__muldf3+0xda>
    12d8:	03800613          	li	a2,56
    12dc:	ccd641e3          	blt	a2,a3,f9e <__muldf3+0x11c>
    12e0:	467d                	li	a2,31
    12e2:	fad656e3          	bge	a2,a3,128e <__muldf3+0x40c>
    12e6:	5605                	li	a2,-31
    12e8:	40f607b3          	sub	a5,a2,a5
    12ec:	02000593          	li	a1,32
    12f0:	00f45633          	srl	a2,s0,a5
    12f4:	00b68763          	beq	a3,a1,1302 <__muldf3+0x480>
    12f8:	43e90913          	addi	s2,s2,1086
    12fc:	012417b3          	sll	a5,s0,s2
    1300:	8cdd                	or	s1,s1,a5
    1302:	009034b3          	snez	s1,s1
    1306:	8cd1                	or	s1,s1,a2
    1308:	0074f693          	andi	a3,s1,7
    130c:	4401                	li	s0,0
    130e:	ca99                	beqz	a3,1324 <__muldf3+0x4a2>
    1310:	00f4f793          	andi	a5,s1,15
    1314:	4611                	li	a2,4
    1316:	4681                	li	a3,0
    1318:	fac792e3          	bne	a5,a2,12bc <__muldf3+0x43a>
    131c:	00969413          	slli	s0,a3,0x9
    1320:	8031                	srli	s0,s0,0xc
    1322:	06f6                	slli	a3,a3,0x1d
    1324:	808d                	srli	s1,s1,0x3
    1326:	8cd5                	or	s1,s1,a3
    1328:	4781                	li	a5,0
    132a:	b90d                	j	f5c <__muldf3+0xda>
    132c:	7ff00793          	li	a5,2047
    1330:	4401                	li	s0,0
    1332:	4481                	li	s1,0
    1334:	b125                	j	f5c <__muldf3+0xda>
    1336:	8942                	mv	s2,a6
    1338:	bd6d                	j	11f2 <__muldf3+0x370>

0000133a <__subdf3>:
    133a:	00100737          	lui	a4,0x100
    133e:	177d                	addi	a4,a4,-1
    1340:	1101                	addi	sp,sp,-32
    1342:	00b77333          	and	t1,a4,a1
    1346:	0146d893          	srli	a7,a3,0x14
    134a:	8f75                	and	a4,a4,a3
    134c:	01d65e93          	srli	t4,a2,0x1d
    1350:	cc22                	sw	s0,24(sp)
    1352:	ca26                	sw	s1,20(sp)
    1354:	030e                	slli	t1,t1,0x3
    1356:	0145d493          	srli	s1,a1,0x14
    135a:	01d55793          	srli	a5,a0,0x1d
    135e:	070e                	slli	a4,a4,0x3
    1360:	ce06                	sw	ra,28(sp)
    1362:	c84a                	sw	s2,16(sp)
    1364:	c64e                	sw	s3,12(sp)
    1366:	7ff8f893          	andi	a7,a7,2047
    136a:	7ff00e13          	li	t3,2047
    136e:	00eee733          	or	a4,t4,a4
    1372:	7ff4f493          	andi	s1,s1,2047
    1376:	01f5d413          	srli	s0,a1,0x1f
    137a:	0067e333          	or	t1,a5,t1
    137e:	00351f13          	slli	t5,a0,0x3
    1382:	82fd                	srli	a3,a3,0x1f
    1384:	00361e93          	slli	t4,a2,0x3
    1388:	19c88063          	beq	a7,t3,1508 <__subdf3+0x1ce>
    138c:	0016c693          	xori	a3,a3,1
    1390:	411485b3          	sub	a1,s1,a7
    1394:	12d40563          	beq	s0,a3,14be <__subdf3+0x184>
    1398:	18b05163          	blez	a1,151a <__subdf3+0x1e0>
    139c:	1a088b63          	beqz	a7,1552 <__subdf3+0x218>
    13a0:	008007b7          	lui	a5,0x800
    13a4:	8f5d                	or	a4,a4,a5
    13a6:	59c48163          	beq	s1,t3,1928 <__subdf3+0x5ee>
    13aa:	03800793          	li	a5,56
    13ae:	34b7c463          	blt	a5,a1,16f6 <__subdf3+0x3bc>
    13b2:	47fd                	li	a5,31
    13b4:	48b7c563          	blt	a5,a1,183e <__subdf3+0x504>
    13b8:	02000793          	li	a5,32
    13bc:	8f8d                	sub	a5,a5,a1
    13be:	00bed9b3          	srl	s3,t4,a1
    13c2:	00f71833          	sll	a6,a4,a5
    13c6:	00fe9eb3          	sll	t4,t4,a5
    13ca:	01386833          	or	a6,a6,s3
    13ce:	00b75733          	srl	a4,a4,a1
    13d2:	01d039b3          	snez	s3,t4
    13d6:	01386833          	or	a6,a6,s3
    13da:	40e30333          	sub	t1,t1,a4
    13de:	410f09b3          	sub	s3,t5,a6
    13e2:	013f37b3          	sltu	a5,t5,s3
    13e6:	40f30633          	sub	a2,t1,a5
    13ea:	00861793          	slli	a5,a2,0x8
    13ee:	2407d363          	bgez	a5,1634 <__subdf3+0x2fa>
    13f2:	00800937          	lui	s2,0x800
    13f6:	197d                	addi	s2,s2,-1
    13f8:	01267933          	and	s2,a2,s2
    13fc:	2c090f63          	beqz	s2,16da <__subdf3+0x3a0>
    1400:	854a                	mv	a0,s2
    1402:	66c010ef          	jal	ra,2a6e <__clzsi2>
    1406:	ff850713          	addi	a4,a0,-8
    140a:	02000793          	li	a5,32
    140e:	8f99                	sub	a5,a5,a4
    1410:	00f9d7b3          	srl	a5,s3,a5
    1414:	00e91633          	sll	a2,s2,a4
    1418:	8fd1                	or	a5,a5,a2
    141a:	00e999b3          	sll	s3,s3,a4
    141e:	2a974463          	blt	a4,s1,16c6 <__subdf3+0x38c>
    1422:	8f05                	sub	a4,a4,s1
    1424:	00170613          	addi	a2,a4,1 # 100001 <_data_lma+0xfc18d>
    1428:	46fd                	li	a3,31
    142a:	3ac6c563          	blt	a3,a2,17d4 <__subdf3+0x49a>
    142e:	02000713          	li	a4,32
    1432:	8f11                	sub	a4,a4,a2
    1434:	00c9d6b3          	srl	a3,s3,a2
    1438:	00e99833          	sll	a6,s3,a4
    143c:	00e79733          	sll	a4,a5,a4
    1440:	8f55                	or	a4,a4,a3
    1442:	01003833          	snez	a6,a6
    1446:	010769b3          	or	s3,a4,a6
    144a:	00c7d633          	srl	a2,a5,a2
    144e:	4481                	li	s1,0
    1450:	0079f793          	andi	a5,s3,7
    1454:	cf81                	beqz	a5,146c <__subdf3+0x132>
    1456:	00f9f693          	andi	a3,s3,15
    145a:	4791                	li	a5,4
    145c:	00f68863          	beq	a3,a5,146c <__subdf3+0x132>
    1460:	00498693          	addi	a3,s3,4
    1464:	0136b833          	sltu	a6,a3,s3
    1468:	9642                	add	a2,a2,a6
    146a:	89b6                	mv	s3,a3
    146c:	00861793          	slli	a5,a2,0x8
    1470:	1c07d663          	bgez	a5,163c <__subdf3+0x302>
    1474:	00148713          	addi	a4,s1,1
    1478:	7ff00793          	li	a5,2047
    147c:	8805                	andi	s0,s0,1
    147e:	20f70663          	beq	a4,a5,168a <__subdf3+0x350>
    1482:	ff8007b7          	lui	a5,0xff800
    1486:	17fd                	addi	a5,a5,-1
    1488:	8ff1                	and	a5,a5,a2
    148a:	01d79813          	slli	a6,a5,0x1d
    148e:	0039d993          	srli	s3,s3,0x3
    1492:	07a6                	slli	a5,a5,0x9
    1494:	01386833          	or	a6,a6,s3
    1498:	83b1                	srli	a5,a5,0xc
    149a:	7ff77713          	andi	a4,a4,2047
    149e:	00c79693          	slli	a3,a5,0xc
    14a2:	0752                	slli	a4,a4,0x14
    14a4:	82b1                	srli	a3,a3,0xc
    14a6:	047e                	slli	s0,s0,0x1f
    14a8:	8ed9                	or	a3,a3,a4
    14aa:	8ec1                	or	a3,a3,s0
    14ac:	40f2                	lw	ra,28(sp)
    14ae:	4462                	lw	s0,24(sp)
    14b0:	44d2                	lw	s1,20(sp)
    14b2:	4942                	lw	s2,16(sp)
    14b4:	49b2                	lw	s3,12(sp)
    14b6:	8542                	mv	a0,a6
    14b8:	85b6                	mv	a1,a3
    14ba:	6105                	addi	sp,sp,32
    14bc:	8082                	ret
    14be:	0ab05663          	blez	a1,156a <__subdf3+0x230>
    14c2:	12088a63          	beqz	a7,15f6 <__subdf3+0x2bc>
    14c6:	008007b7          	lui	a5,0x800
    14ca:	8f5d                	or	a4,a4,a5
    14cc:	2dc48763          	beq	s1,t3,179a <__subdf3+0x460>
    14d0:	03800793          	li	a5,56
    14d4:	18b7c763          	blt	a5,a1,1662 <__subdf3+0x328>
    14d8:	47fd                	li	a5,31
    14da:	3cb7d263          	bge	a5,a1,189e <__subdf3+0x564>
    14de:	fe058813          	addi	a6,a1,-32
    14e2:	02000793          	li	a5,32
    14e6:	010759b3          	srl	s3,a4,a6
    14ea:	00f58a63          	beq	a1,a5,14fe <__subdf3+0x1c4>
    14ee:	04000793          	li	a5,64
    14f2:	40b785b3          	sub	a1,a5,a1
    14f6:	00b71733          	sll	a4,a4,a1
    14fa:	00eeeeb3          	or	t4,t4,a4
    14fe:	01d03833          	snez	a6,t4
    1502:	01386833          	or	a6,a6,s3
    1506:	a295                	j	166a <__subdf3+0x330>
    1508:	01d767b3          	or	a5,a4,t4
    150c:	80148593          	addi	a1,s1,-2047
    1510:	e399                	bnez	a5,1516 <__subdf3+0x1dc>
    1512:	0016c693          	xori	a3,a3,1
    1516:	04d40a63          	beq	s0,a3,156a <__subdf3+0x230>
    151a:	e1d1                	bnez	a1,159e <__subdf3+0x264>
    151c:	00148793          	addi	a5,s1,1
    1520:	7fe7f793          	andi	a5,a5,2046
    1524:	1e079963          	bnez	a5,1716 <__subdf3+0x3dc>
    1528:	01e367b3          	or	a5,t1,t5
    152c:	01d76833          	or	a6,a4,t4
    1530:	16049263          	bnez	s1,1694 <__subdf3+0x35a>
    1534:	3c078263          	beqz	a5,18f8 <__subdf3+0x5be>
    1538:	42081663          	bnez	a6,1964 <__subdf3+0x62a>
    153c:	00351813          	slli	a6,a0,0x3
    1540:	01d31693          	slli	a3,t1,0x1d
    1544:	00385813          	srli	a6,a6,0x3
    1548:	0106e833          	or	a6,a3,a6
    154c:	00335793          	srli	a5,t1,0x3
    1550:	a219                	j	1656 <__subdf3+0x31c>
    1552:	01d767b3          	or	a5,a4,t4
    1556:	1a078563          	beqz	a5,1700 <__subdf3+0x3c6>
    155a:	fff58793          	addi	a5,a1,-1
    155e:	3a078b63          	beqz	a5,1914 <__subdf3+0x5da>
    1562:	23c58c63          	beq	a1,t3,179a <__subdf3+0x460>
    1566:	85be                	mv	a1,a5
    1568:	b589                	j	13aa <__subdf3+0x70>
    156a:	1c059963          	bnez	a1,173c <__subdf3+0x402>
    156e:	00148693          	addi	a3,s1,1
    1572:	7fe6f793          	andi	a5,a3,2046
    1576:	efc1                	bnez	a5,160e <__subdf3+0x2d4>
    1578:	01e367b3          	or	a5,t1,t5
    157c:	36049063          	bnez	s1,18dc <__subdf3+0x5a2>
    1580:	44078d63          	beqz	a5,19da <__subdf3+0x6a0>
    1584:	01d767b3          	or	a5,a4,t4
    1588:	46079463          	bnez	a5,19f0 <__subdf3+0x6b6>
    158c:	050e                	slli	a0,a0,0x3
    158e:	01d31813          	slli	a6,t1,0x1d
    1592:	810d                	srli	a0,a0,0x3
    1594:	00a86833          	or	a6,a6,a0
    1598:	00335793          	srli	a5,t1,0x3
    159c:	a86d                	j	1656 <__subdf3+0x31c>
    159e:	409885b3          	sub	a1,a7,s1
    15a2:	20049763          	bnez	s1,17b0 <__subdf3+0x476>
    15a6:	01e367b3          	or	a5,t1,t5
    15aa:	30078d63          	beqz	a5,18c4 <__subdf3+0x58a>
    15ae:	fff58793          	addi	a5,a1,-1
    15b2:	40078963          	beqz	a5,19c4 <__subdf3+0x68a>
    15b6:	7ff00513          	li	a0,2047
    15ba:	20a58363          	beq	a1,a0,17c0 <__subdf3+0x486>
    15be:	85be                	mv	a1,a5
    15c0:	03800793          	li	a5,56
    15c4:	2ab7c263          	blt	a5,a1,1868 <__subdf3+0x52e>
    15c8:	47fd                	li	a5,31
    15ca:	3cb7c863          	blt	a5,a1,199a <__subdf3+0x660>
    15ce:	02000793          	li	a5,32
    15d2:	8f8d                	sub	a5,a5,a1
    15d4:	00f31833          	sll	a6,t1,a5
    15d8:	00bf5633          	srl	a2,t5,a1
    15dc:	00ff17b3          	sll	a5,t5,a5
    15e0:	00c86833          	or	a6,a6,a2
    15e4:	00f039b3          	snez	s3,a5
    15e8:	00b35333          	srl	t1,t1,a1
    15ec:	01386833          	or	a6,a6,s3
    15f0:	40670733          	sub	a4,a4,t1
    15f4:	acb5                	j	1870 <__subdf3+0x536>
    15f6:	01d767b3          	or	a5,a4,t4
    15fa:	10078363          	beqz	a5,1700 <__subdf3+0x3c6>
    15fe:	fff58793          	addi	a5,a1,-1
    1602:	1e078f63          	beqz	a5,1800 <__subdf3+0x4c6>
    1606:	2fc58063          	beq	a1,t3,18e6 <__subdf3+0x5ac>
    160a:	85be                	mv	a1,a5
    160c:	b5d1                	j	14d0 <__subdf3+0x196>
    160e:	7ff00793          	li	a5,2047
    1612:	06f68b63          	beq	a3,a5,1688 <__subdf3+0x34e>
    1616:	9efa                	add	t4,t4,t5
    1618:	01eeb633          	sltu	a2,t4,t5
    161c:	00e307b3          	add	a5,t1,a4
    1620:	97b2                	add	a5,a5,a2
    1622:	01f79813          	slli	a6,a5,0x1f
    1626:	001ede93          	srli	t4,t4,0x1
    162a:	01d869b3          	or	s3,a6,t4
    162e:	0017d613          	srli	a2,a5,0x1
    1632:	84b6                	mv	s1,a3
    1634:	0079f793          	andi	a5,s3,7
    1638:	e0079fe3          	bnez	a5,1456 <__subdf3+0x11c>
    163c:	01d61793          	slli	a5,a2,0x1d
    1640:	0039d813          	srli	a6,s3,0x3
    1644:	00f86833          	or	a6,a6,a5
    1648:	85a6                	mv	a1,s1
    164a:	00365793          	srli	a5,a2,0x3
    164e:	7ff00713          	li	a4,2047
    1652:	06e58063          	beq	a1,a4,16b2 <__subdf3+0x378>
    1656:	07b2                	slli	a5,a5,0xc
    1658:	83b1                	srli	a5,a5,0xc
    165a:	7ff5f713          	andi	a4,a1,2047
    165e:	8805                	andi	s0,s0,1
    1660:	bd3d                	j	149e <__subdf3+0x164>
    1662:	01d76733          	or	a4,a4,t4
    1666:	00e03833          	snez	a6,a4
    166a:	01e809b3          	add	s3,a6,t5
    166e:	01e9b7b3          	sltu	a5,s3,t5
    1672:	00678633          	add	a2,a5,t1
    1676:	00861793          	slli	a5,a2,0x8
    167a:	fa07dde3          	bgez	a5,1634 <__subdf3+0x2fa>
    167e:	0485                	addi	s1,s1,1
    1680:	7ff00793          	li	a5,2047
    1684:	18f49c63          	bne	s1,a5,181c <__subdf3+0x4e2>
    1688:	8805                	andi	s0,s0,1
    168a:	7ff00713          	li	a4,2047
    168e:	4781                	li	a5,0
    1690:	4801                	li	a6,0
    1692:	b531                	j	149e <__subdf3+0x164>
    1694:	10079163          	bnez	a5,1796 <__subdf3+0x45c>
    1698:	3c080163          	beqz	a6,1a5a <__subdf3+0x720>
    169c:	00361813          	slli	a6,a2,0x3
    16a0:	01d71793          	slli	a5,a4,0x1d
    16a4:	00385813          	srli	a6,a6,0x3
    16a8:	00f86833          	or	a6,a6,a5
    16ac:	8436                	mv	s0,a3
    16ae:	00375793          	srli	a5,a4,0x3
    16b2:	00f867b3          	or	a5,a6,a5
    16b6:	dbe9                	beqz	a5,1688 <__subdf3+0x34e>
    16b8:	4401                	li	s0,0
    16ba:	7ff00713          	li	a4,2047
    16be:	000807b7          	lui	a5,0x80
    16c2:	4801                	li	a6,0
    16c4:	bbe9                	j	149e <__subdf3+0x164>
    16c6:	ff800637          	lui	a2,0xff800
    16ca:	167d                	addi	a2,a2,-1
    16cc:	8e7d                	and	a2,a2,a5
    16ce:	0079f793          	andi	a5,s3,7
    16d2:	8c99                	sub	s1,s1,a4
    16d4:	d80791e3          	bnez	a5,1456 <__subdf3+0x11c>
    16d8:	b795                	j	163c <__subdf3+0x302>
    16da:	854e                	mv	a0,s3
    16dc:	392010ef          	jal	ra,2a6e <__clzsi2>
    16e0:	01850713          	addi	a4,a0,24
    16e4:	47fd                	li	a5,31
    16e6:	d2e7d2e3          	bge	a5,a4,140a <__subdf3+0xd0>
    16ea:	ff850613          	addi	a2,a0,-8
    16ee:	00c997b3          	sll	a5,s3,a2
    16f2:	4981                	li	s3,0
    16f4:	b32d                	j	141e <__subdf3+0xe4>
    16f6:	01d76833          	or	a6,a4,t4
    16fa:	01003833          	snez	a6,a6
    16fe:	b1c5                	j	13de <__subdf3+0xa4>
    1700:	00351813          	slli	a6,a0,0x3
    1704:	01d31793          	slli	a5,t1,0x1d
    1708:	00385813          	srli	a6,a6,0x3
    170c:	00f86833          	or	a6,a6,a5
    1710:	00335793          	srli	a5,t1,0x3
    1714:	bf2d                	j	164e <__subdf3+0x314>
    1716:	41df09b3          	sub	s3,t5,t4
    171a:	40e30933          	sub	s2,t1,a4
    171e:	013f3633          	sltu	a2,t5,s3
    1722:	40c90933          	sub	s2,s2,a2
    1726:	00891793          	slli	a5,s2,0x8
    172a:	2007ca63          	bltz	a5,193e <__subdf3+0x604>
    172e:	0129e833          	or	a6,s3,s2
    1732:	cc0815e3          	bnez	a6,13fc <__subdf3+0xc2>
    1736:	4781                	li	a5,0
    1738:	4401                	li	s0,0
    173a:	bf31                	j	1656 <__subdf3+0x31c>
    173c:	409885b3          	sub	a1,a7,s1
    1740:	14048163          	beqz	s1,1882 <__subdf3+0x548>
    1744:	008006b7          	lui	a3,0x800
    1748:	7ff00793          	li	a5,2047
    174c:	00d36333          	or	t1,t1,a3
    1750:	20f88163          	beq	a7,a5,1952 <__subdf3+0x618>
    1754:	03800793          	li	a5,56
    1758:	22b7cc63          	blt	a5,a1,1990 <__subdf3+0x656>
    175c:	47fd                	li	a5,31
    175e:	2cb7c963          	blt	a5,a1,1a30 <__subdf3+0x6f6>
    1762:	02000793          	li	a5,32
    1766:	8f8d                	sub	a5,a5,a1
    1768:	00f31833          	sll	a6,t1,a5
    176c:	00bf56b3          	srl	a3,t5,a1
    1770:	00ff17b3          	sll	a5,t5,a5
    1774:	00d86833          	or	a6,a6,a3
    1778:	00f039b3          	snez	s3,a5
    177c:	00b35333          	srl	t1,t1,a1
    1780:	01386833          	or	a6,a6,s3
    1784:	971a                	add	a4,a4,t1
    1786:	01d809b3          	add	s3,a6,t4
    178a:	01d9b7b3          	sltu	a5,s3,t4
    178e:	00e78633          	add	a2,a5,a4
    1792:	84c6                	mv	s1,a7
    1794:	b5cd                	j	1676 <__subdf3+0x33c>
    1796:	f20811e3          	bnez	a6,16b8 <__subdf3+0x37e>
    179a:	00351813          	slli	a6,a0,0x3
    179e:	01d31793          	slli	a5,t1,0x1d
    17a2:	00385813          	srli	a6,a6,0x3
    17a6:	00f86833          	or	a6,a6,a5
    17aa:	00335793          	srli	a5,t1,0x3
    17ae:	b711                	j	16b2 <__subdf3+0x378>
    17b0:	00800537          	lui	a0,0x800
    17b4:	7ff00793          	li	a5,2047
    17b8:	00a36333          	or	t1,t1,a0
    17bc:	e0f892e3          	bne	a7,a5,15c0 <__subdf3+0x286>
    17c0:	060e                	slli	a2,a2,0x3
    17c2:	01d71813          	slli	a6,a4,0x1d
    17c6:	820d                	srli	a2,a2,0x3
    17c8:	00c86833          	or	a6,a6,a2
    17cc:	00375793          	srli	a5,a4,0x3
    17d0:	8436                	mv	s0,a3
    17d2:	b5c5                	j	16b2 <__subdf3+0x378>
    17d4:	1705                	addi	a4,a4,-31
    17d6:	02000693          	li	a3,32
    17da:	00e7d733          	srl	a4,a5,a4
    17de:	00d60a63          	beq	a2,a3,17f2 <__subdf3+0x4b8>
    17e2:	04000693          	li	a3,64
    17e6:	40c68633          	sub	a2,a3,a2
    17ea:	00c79633          	sll	a2,a5,a2
    17ee:	00c9e9b3          	or	s3,s3,a2
    17f2:	01303833          	snez	a6,s3
    17f6:	00e869b3          	or	s3,a6,a4
    17fa:	4601                	li	a2,0
    17fc:	4481                	li	s1,0
    17fe:	bd1d                	j	1634 <__subdf3+0x2fa>
    1800:	01df09b3          	add	s3,t5,t4
    1804:	00e307b3          	add	a5,t1,a4
    1808:	01e9bf33          	sltu	t5,s3,t5
    180c:	01e78633          	add	a2,a5,t5
    1810:	00861793          	slli	a5,a2,0x8
    1814:	4485                	li	s1,1
    1816:	e007dfe3          	bgez	a5,1634 <__subdf3+0x2fa>
    181a:	4489                	li	s1,2
    181c:	ff8007b7          	lui	a5,0xff800
    1820:	17fd                	addi	a5,a5,-1
    1822:	8ff1                	and	a5,a5,a2
    1824:	0019d713          	srli	a4,s3,0x1
    1828:	0019f813          	andi	a6,s3,1
    182c:	01076833          	or	a6,a4,a6
    1830:	01f79993          	slli	s3,a5,0x1f
    1834:	0109e9b3          	or	s3,s3,a6
    1838:	0017d613          	srli	a2,a5,0x1
    183c:	b911                	j	1450 <__subdf3+0x116>
    183e:	fe058813          	addi	a6,a1,-32
    1842:	02000793          	li	a5,32
    1846:	010759b3          	srl	s3,a4,a6
    184a:	00f58a63          	beq	a1,a5,185e <__subdf3+0x524>
    184e:	04000793          	li	a5,64
    1852:	40b785b3          	sub	a1,a5,a1
    1856:	00b71733          	sll	a4,a4,a1
    185a:	00eeeeb3          	or	t4,t4,a4
    185e:	01d03833          	snez	a6,t4
    1862:	01386833          	or	a6,a6,s3
    1866:	bea5                	j	13de <__subdf3+0xa4>
    1868:	01e36333          	or	t1,t1,t5
    186c:	00603833          	snez	a6,t1
    1870:	410e89b3          	sub	s3,t4,a6
    1874:	013eb7b3          	sltu	a5,t4,s3
    1878:	40f70633          	sub	a2,a4,a5
    187c:	84c6                	mv	s1,a7
    187e:	8436                	mv	s0,a3
    1880:	b6ad                	j	13ea <__subdf3+0xb0>
    1882:	01e367b3          	or	a5,t1,t5
    1886:	18078763          	beqz	a5,1a14 <__subdf3+0x6da>
    188a:	fff58793          	addi	a5,a1,-1
    188e:	1c078c63          	beqz	a5,1a66 <__subdf3+0x72c>
    1892:	7ff00693          	li	a3,2047
    1896:	0ad58e63          	beq	a1,a3,1952 <__subdf3+0x618>
    189a:	85be                	mv	a1,a5
    189c:	bd65                	j	1754 <__subdf3+0x41a>
    189e:	02000793          	li	a5,32
    18a2:	8f8d                	sub	a5,a5,a1
    18a4:	00bed9b3          	srl	s3,t4,a1
    18a8:	00f71833          	sll	a6,a4,a5
    18ac:	00fe9eb3          	sll	t4,t4,a5
    18b0:	01386833          	or	a6,a6,s3
    18b4:	00b75733          	srl	a4,a4,a1
    18b8:	01d039b3          	snez	s3,t4
    18bc:	01386833          	or	a6,a6,s3
    18c0:	933a                	add	t1,t1,a4
    18c2:	b365                	j	166a <__subdf3+0x330>
    18c4:	00361813          	slli	a6,a2,0x3
    18c8:	01d71793          	slli	a5,a4,0x1d
    18cc:	00385813          	srli	a6,a6,0x3
    18d0:	0107e833          	or	a6,a5,a6
    18d4:	8436                	mv	s0,a3
    18d6:	00375793          	srli	a5,a4,0x3
    18da:	bb95                	j	164e <__subdf3+0x314>
    18dc:	cbbd                	beqz	a5,1952 <__subdf3+0x618>
    18de:	01d76733          	or	a4,a4,t4
    18e2:	dc071be3          	bnez	a4,16b8 <__subdf3+0x37e>
    18e6:	050e                	slli	a0,a0,0x3
    18e8:	01d31813          	slli	a6,t1,0x1d
    18ec:	810d                	srli	a0,a0,0x3
    18ee:	00a86833          	or	a6,a6,a0
    18f2:	00335793          	srli	a5,t1,0x3
    18f6:	bb75                	j	16b2 <__subdf3+0x378>
    18f8:	e2080fe3          	beqz	a6,1736 <__subdf3+0x3fc>
    18fc:	00361813          	slli	a6,a2,0x3
    1900:	01d71793          	slli	a5,a4,0x1d
    1904:	00385813          	srli	a6,a6,0x3
    1908:	00f86833          	or	a6,a6,a5
    190c:	8436                	mv	s0,a3
    190e:	00375793          	srli	a5,a4,0x3
    1912:	b391                	j	1656 <__subdf3+0x31c>
    1914:	41df09b3          	sub	s3,t5,t4
    1918:	40e307b3          	sub	a5,t1,a4
    191c:	013f3f33          	sltu	t5,t5,s3
    1920:	41e78633          	sub	a2,a5,t5
    1924:	4485                	li	s1,1
    1926:	b4d1                	j	13ea <__subdf3+0xb0>
    1928:	00351813          	slli	a6,a0,0x3
    192c:	01d31693          	slli	a3,t1,0x1d
    1930:	00385813          	srli	a6,a6,0x3
    1934:	0106e833          	or	a6,a3,a6
    1938:	00335793          	srli	a5,t1,0x3
    193c:	bb9d                	j	16b2 <__subdf3+0x378>
    193e:	41ee89b3          	sub	s3,t4,t5
    1942:	40670633          	sub	a2,a4,t1
    1946:	013eb933          	sltu	s2,t4,s3
    194a:	41260933          	sub	s2,a2,s2
    194e:	8436                	mv	s0,a3
    1950:	b475                	j	13fc <__subdf3+0xc2>
    1952:	060e                	slli	a2,a2,0x3
    1954:	01d71813          	slli	a6,a4,0x1d
    1958:	820d                	srli	a2,a2,0x3
    195a:	00c86833          	or	a6,a6,a2
    195e:	00375793          	srli	a5,a4,0x3
    1962:	bb81                	j	16b2 <__subdf3+0x378>
    1964:	41df09b3          	sub	s3,t5,t4
    1968:	40e307b3          	sub	a5,t1,a4
    196c:	013f3633          	sltu	a2,t5,s3
    1970:	40c78633          	sub	a2,a5,a2
    1974:	00861793          	slli	a5,a2,0x8
    1978:	0a07d763          	bgez	a5,1a26 <__subdf3+0x6ec>
    197c:	41ee89b3          	sub	s3,t4,t5
    1980:	406707b3          	sub	a5,a4,t1
    1984:	013ebeb3          	sltu	t4,t4,s3
    1988:	41d78633          	sub	a2,a5,t4
    198c:	8436                	mv	s0,a3
    198e:	b4c9                	j	1450 <__subdf3+0x116>
    1990:	01e36333          	or	t1,t1,t5
    1994:	00603833          	snez	a6,t1
    1998:	b3fd                	j	1786 <__subdf3+0x44c>
    199a:	fe058813          	addi	a6,a1,-32
    199e:	02000793          	li	a5,32
    19a2:	010359b3          	srl	s3,t1,a6
    19a6:	00f58a63          	beq	a1,a5,19ba <__subdf3+0x680>
    19aa:	04000793          	li	a5,64
    19ae:	40b785b3          	sub	a1,a5,a1
    19b2:	00b31333          	sll	t1,t1,a1
    19b6:	006f6f33          	or	t5,t5,t1
    19ba:	01e03833          	snez	a6,t5
    19be:	01386833          	or	a6,a6,s3
    19c2:	b57d                	j	1870 <__subdf3+0x536>
    19c4:	41ee89b3          	sub	s3,t4,t5
    19c8:	406707b3          	sub	a5,a4,t1
    19cc:	013ebeb3          	sltu	t4,t4,s3
    19d0:	41d78633          	sub	a2,a5,t4
    19d4:	8436                	mv	s0,a3
    19d6:	4485                	li	s1,1
    19d8:	bc09                	j	13ea <__subdf3+0xb0>
    19da:	00361813          	slli	a6,a2,0x3
    19de:	01d71793          	slli	a5,a4,0x1d
    19e2:	00385813          	srli	a6,a6,0x3
    19e6:	00f86833          	or	a6,a6,a5
    19ea:	00375793          	srli	a5,a4,0x3
    19ee:	b1a5                	j	1656 <__subdf3+0x31c>
    19f0:	01df09b3          	add	s3,t5,t4
    19f4:	00e307b3          	add	a5,t1,a4
    19f8:	01e9bf33          	sltu	t5,s3,t5
    19fc:	01e78633          	add	a2,a5,t5
    1a00:	00861793          	slli	a5,a2,0x8
    1a04:	c207d8e3          	bgez	a5,1634 <__subdf3+0x2fa>
    1a08:	ff8007b7          	lui	a5,0xff800
    1a0c:	17fd                	addi	a5,a5,-1
    1a0e:	8e7d                	and	a2,a2,a5
    1a10:	4485                	li	s1,1
    1a12:	b10d                	j	1634 <__subdf3+0x2fa>
    1a14:	060e                	slli	a2,a2,0x3
    1a16:	01d71813          	slli	a6,a4,0x1d
    1a1a:	820d                	srli	a2,a2,0x3
    1a1c:	00c86833          	or	a6,a6,a2
    1a20:	00375793          	srli	a5,a4,0x3
    1a24:	b12d                	j	164e <__subdf3+0x314>
    1a26:	00c9e833          	or	a6,s3,a2
    1a2a:	d00806e3          	beqz	a6,1736 <__subdf3+0x3fc>
    1a2e:	b119                	j	1634 <__subdf3+0x2fa>
    1a30:	fe058813          	addi	a6,a1,-32
    1a34:	02000793          	li	a5,32
    1a38:	010359b3          	srl	s3,t1,a6
    1a3c:	00f58a63          	beq	a1,a5,1a50 <__subdf3+0x716>
    1a40:	04000793          	li	a5,64
    1a44:	40b785b3          	sub	a1,a5,a1
    1a48:	00b31333          	sll	t1,t1,a1
    1a4c:	006f6f33          	or	t5,t5,t1
    1a50:	01e03833          	snez	a6,t5
    1a54:	01386833          	or	a6,a6,s3
    1a58:	b33d                	j	1786 <__subdf3+0x44c>
    1a5a:	4401                	li	s0,0
    1a5c:	7ff00713          	li	a4,2047
    1a60:	000807b7          	lui	a5,0x80
    1a64:	bc2d                	j	149e <__subdf3+0x164>
    1a66:	01df09b3          	add	s3,t5,t4
    1a6a:	00e307b3          	add	a5,t1,a4
    1a6e:	01d9beb3          	sltu	t4,s3,t4
    1a72:	01d78633          	add	a2,a5,t4
    1a76:	bb69                	j	1810 <__subdf3+0x4d6>

00001a78 <__addsf3>:
    1a78:	1141                	addi	sp,sp,-16
    1a7a:	00800737          	lui	a4,0x800
    1a7e:	177d                	addi	a4,a4,-1
    1a80:	0175d813          	srli	a6,a1,0x17
    1a84:	c226                	sw	s1,4(sp)
    1a86:	01755493          	srli	s1,a0,0x17
    1a8a:	00a77333          	and	t1,a4,a0
    1a8e:	0ff4f493          	andi	s1,s1,255
    1a92:	00b776b3          	and	a3,a4,a1
    1a96:	c04a                	sw	s2,0(sp)
    1a98:	0ff87813          	andi	a6,a6,255
    1a9c:	01f55913          	srli	s2,a0,0x1f
    1aa0:	c606                	sw	ra,12(sp)
    1aa2:	c422                	sw	s0,8(sp)
    1aa4:	81fd                	srli	a1,a1,0x1f
    1aa6:	879a                	mv	a5,t1
    1aa8:	8526                	mv	a0,s1
    1aaa:	864a                	mv	a2,s2
    1aac:	00331e13          	slli	t3,t1,0x3
    1ab0:	00369e93          	slli	t4,a3,0x3
    1ab4:	410488b3          	sub	a7,s1,a6
    1ab8:	0eb90a63          	beq	s2,a1,1bac <__addsf3+0x134>
    1abc:	0d105063          	blez	a7,1b7c <__addsf3+0x104>
    1ac0:	14080463          	beqz	a6,1c08 <__addsf3+0x190>
    1ac4:	0ff00793          	li	a5,255
    1ac8:	14f48b63          	beq	s1,a5,1c1e <__addsf3+0x1a6>
    1acc:	040007b7          	lui	a5,0x4000
    1ad0:	00feeeb3          	or	t4,t4,a5
    1ad4:	47ed                	li	a5,27
    1ad6:	2917c163          	blt	a5,a7,1d58 <__addsf3+0x2e0>
    1ada:	02000793          	li	a5,32
    1ade:	411787b3          	sub	a5,a5,a7
    1ae2:	00fe97b3          	sll	a5,t4,a5
    1ae6:	011ed8b3          	srl	a7,t4,a7
    1aea:	00f037b3          	snez	a5,a5
    1aee:	00f8e7b3          	or	a5,a7,a5
    1af2:	40fe07b3          	sub	a5,t3,a5
    1af6:	00579713          	slli	a4,a5,0x5
    1afa:	18075e63          	bgez	a4,1c96 <__addsf3+0x21e>
    1afe:	04000437          	lui	s0,0x4000
    1b02:	147d                	addi	s0,s0,-1
    1b04:	8c7d                	and	s0,s0,a5
    1b06:	8522                	mv	a0,s0
    1b08:	767000ef          	jal	ra,2a6e <__clzsi2>
    1b0c:	156d                	addi	a0,a0,-5
    1b0e:	00a417b3          	sll	a5,s0,a0
    1b12:	1a954863          	blt	a0,s1,1cc2 <__addsf3+0x24a>
    1b16:	8d05                	sub	a0,a0,s1
    1b18:	00150413          	addi	s0,a0,1 # 800001 <_data_lma+0x7fc18d>
    1b1c:	02000713          	li	a4,32
    1b20:	8f01                	sub	a4,a4,s0
    1b22:	00e79733          	sll	a4,a5,a4
    1b26:	00e03733          	snez	a4,a4
    1b2a:	0087d7b3          	srl	a5,a5,s0
    1b2e:	8fd9                	or	a5,a5,a4
    1b30:	4481                	li	s1,0
    1b32:	0077f713          	andi	a4,a5,7
    1b36:	c719                	beqz	a4,1b44 <__addsf3+0xcc>
    1b38:	00f7f713          	andi	a4,a5,15
    1b3c:	4691                	li	a3,4
    1b3e:	00d70363          	beq	a4,a3,1b44 <__addsf3+0xcc>
    1b42:	0791                	addi	a5,a5,4
    1b44:	00579713          	slli	a4,a5,0x5
    1b48:	14075b63          	bgez	a4,1c9e <__addsf3+0x226>
    1b4c:	0485                	addi	s1,s1,1
    1b4e:	0ff00713          	li	a4,255
    1b52:	864a                	mv	a2,s2
    1b54:	16e48363          	beq	s1,a4,1cba <__addsf3+0x242>
    1b58:	079a                	slli	a5,a5,0x6
    1b5a:	83a5                	srli	a5,a5,0x9
    1b5c:	0ff4f513          	andi	a0,s1,255
    1b60:	40b2                	lw	ra,12(sp)
    1b62:	4422                	lw	s0,8(sp)
    1b64:	07a6                	slli	a5,a5,0x9
    1b66:	01751493          	slli	s1,a0,0x17
    1b6a:	0097d513          	srli	a0,a5,0x9
    1b6e:	8d45                	or	a0,a0,s1
    1b70:	067e                	slli	a2,a2,0x1f
    1b72:	4492                	lw	s1,4(sp)
    1b74:	4902                	lw	s2,0(sp)
    1b76:	8d51                	or	a0,a0,a2
    1b78:	0141                	addi	sp,sp,16
    1b7a:	8082                	ret
    1b7c:	0a089963          	bnez	a7,1c2e <__addsf3+0x1b6>
    1b80:	00148713          	addi	a4,s1,1
    1b84:	0fe77713          	andi	a4,a4,254
    1b88:	14071763          	bnez	a4,1cd6 <__addsf3+0x25e>
    1b8c:	22049063          	bnez	s1,1dac <__addsf3+0x334>
    1b90:	1e0e0d63          	beqz	t3,1d8a <__addsf3+0x312>
    1b94:	fc0e86e3          	beqz	t4,1b60 <__addsf3+0xe8>
    1b98:	41de07b3          	sub	a5,t3,t4
    1b9c:	00579713          	slli	a4,a5,0x5
    1ba0:	22075063          	bgez	a4,1dc0 <__addsf3+0x348>
    1ba4:	41ce87b3          	sub	a5,t4,t3
    1ba8:	892e                	mv	s2,a1
    1baa:	b761                	j	1b32 <__addsf3+0xba>
    1bac:	0b105c63          	blez	a7,1c64 <__addsf3+0x1ec>
    1bb0:	08080e63          	beqz	a6,1c4c <__addsf3+0x1d4>
    1bb4:	0ff00793          	li	a5,255
    1bb8:	06f48363          	beq	s1,a5,1c1e <__addsf3+0x1a6>
    1bbc:	040007b7          	lui	a5,0x4000
    1bc0:	00feeeb3          	or	t4,t4,a5
    1bc4:	47ed                	li	a5,27
    1bc6:	1f17c963          	blt	a5,a7,1db8 <__addsf3+0x340>
    1bca:	02000793          	li	a5,32
    1bce:	411787b3          	sub	a5,a5,a7
    1bd2:	00fe97b3          	sll	a5,t4,a5
    1bd6:	011ed8b3          	srl	a7,t4,a7
    1bda:	00f037b3          	snez	a5,a5
    1bde:	00f8e7b3          	or	a5,a7,a5
    1be2:	97f2                	add	a5,a5,t3
    1be4:	00579713          	slli	a4,a5,0x5
    1be8:	0a075763          	bgez	a4,1c96 <__addsf3+0x21e>
    1bec:	0485                	addi	s1,s1,1
    1bee:	0ff00713          	li	a4,255
    1bf2:	0ce48463          	beq	s1,a4,1cba <__addsf3+0x242>
    1bf6:	7e0006b7          	lui	a3,0x7e000
    1bfa:	0017d713          	srli	a4,a5,0x1
    1bfe:	16fd                	addi	a3,a3,-1
    1c00:	8b85                	andi	a5,a5,1
    1c02:	8f75                	and	a4,a4,a3
    1c04:	8fd9                	or	a5,a5,a4
    1c06:	b735                	j	1b32 <__addsf3+0xba>
    1c08:	080e8d63          	beqz	t4,1ca2 <__addsf3+0x22a>
    1c0c:	18fd                	addi	a7,a7,-1
    1c0e:	41de07b3          	sub	a5,t3,t4
    1c12:	ee0882e3          	beqz	a7,1af6 <__addsf3+0x7e>
    1c16:	0ff00793          	li	a5,255
    1c1a:	eaf49de3          	bne	s1,a5,1ad4 <__addsf3+0x5c>
    1c1e:	08030d63          	beqz	t1,1cb8 <__addsf3+0x240>
    1c22:	4601                	li	a2,0
    1c24:	0ff00513          	li	a0,255
    1c28:	004007b7          	lui	a5,0x400
    1c2c:	bf15                	j	1b60 <__addsf3+0xe8>
    1c2e:	40980733          	sub	a4,a6,s1
    1c32:	e8ed                	bnez	s1,1d24 <__addsf3+0x2ac>
    1c34:	140e0263          	beqz	t3,1d78 <__addsf3+0x300>
    1c38:	177d                	addi	a4,a4,-1
    1c3a:	18070863          	beqz	a4,1dca <__addsf3+0x352>
    1c3e:	0ff00793          	li	a5,255
    1c42:	0ef81963          	bne	a6,a5,1d34 <__addsf3+0x2bc>
    1c46:	892e                	mv	s2,a1
    1c48:	8336                	mv	t1,a3
    1c4a:	bfd1                	j	1c1e <__addsf3+0x1a6>
    1c4c:	040e8b63          	beqz	t4,1ca2 <__addsf3+0x22a>
    1c50:	18fd                	addi	a7,a7,-1
    1c52:	01de07b3          	add	a5,t3,t4
    1c56:	f80887e3          	beqz	a7,1be4 <__addsf3+0x16c>
    1c5a:	0ff00793          	li	a5,255
    1c5e:	f6f493e3          	bne	s1,a5,1bc4 <__addsf3+0x14c>
    1c62:	bf75                	j	1c1e <__addsf3+0x1a6>
    1c64:	08089563          	bnez	a7,1cee <__addsf3+0x276>
    1c68:	0485                	addi	s1,s1,1
    1c6a:	0fe4f713          	andi	a4,s1,254
    1c6e:	12071363          	bnez	a4,1d94 <__addsf3+0x31c>
    1c72:	10051763          	bnez	a0,1d80 <__addsf3+0x308>
    1c76:	140e0f63          	beqz	t3,1dd4 <__addsf3+0x35c>
    1c7a:	ee0e83e3          	beqz	t4,1b60 <__addsf3+0xe8>
    1c7e:	01de07b3          	add	a5,t3,t4
    1c82:	00579713          	slli	a4,a5,0x5
    1c86:	4481                	li	s1,0
    1c88:	00075763          	bgez	a4,1c96 <__addsf3+0x21e>
    1c8c:	fc000737          	lui	a4,0xfc000
    1c90:	177d                	addi	a4,a4,-1
    1c92:	8ff9                	and	a5,a5,a4
    1c94:	4485                	li	s1,1
    1c96:	0077f713          	andi	a4,a5,7
    1c9a:	e8071fe3          	bnez	a4,1b38 <__addsf3+0xc0>
    1c9e:	0037d313          	srli	t1,a5,0x3
    1ca2:	0ff00793          	li	a5,255
    1ca6:	f6f48ce3          	beq	s1,a5,1c1e <__addsf3+0x1a6>
    1caa:	00931793          	slli	a5,t1,0x9
    1cae:	83a5                	srli	a5,a5,0x9
    1cb0:	0ff4f513          	andi	a0,s1,255
    1cb4:	864a                	mv	a2,s2
    1cb6:	b56d                	j	1b60 <__addsf3+0xe8>
    1cb8:	864a                	mv	a2,s2
    1cba:	0ff00513          	li	a0,255
    1cbe:	4781                	li	a5,0
    1cc0:	b545                	j	1b60 <__addsf3+0xe8>
    1cc2:	fc000737          	lui	a4,0xfc000
    1cc6:	177d                	addi	a4,a4,-1
    1cc8:	8ff9                	and	a5,a5,a4
    1cca:	0077f713          	andi	a4,a5,7
    1cce:	8c89                	sub	s1,s1,a0
    1cd0:	e60714e3          	bnez	a4,1b38 <__addsf3+0xc0>
    1cd4:	b7e9                	j	1c9e <__addsf3+0x226>
    1cd6:	41de0433          	sub	s0,t3,t4
    1cda:	00541793          	slli	a5,s0,0x5
    1cde:	0c07c363          	bltz	a5,1da4 <__addsf3+0x32c>
    1ce2:	e20412e3          	bnez	s0,1b06 <__addsf3+0x8e>
    1ce6:	4601                	li	a2,0
    1ce8:	4501                	li	a0,0
    1cea:	4781                	li	a5,0
    1cec:	bd95                	j	1b60 <__addsf3+0xe8>
    1cee:	40980733          	sub	a4,a6,s1
    1cf2:	c4ad                	beqz	s1,1d5c <__addsf3+0x2e4>
    1cf4:	0ff00793          	li	a5,255
    1cf8:	f4f808e3          	beq	a6,a5,1c48 <__addsf3+0x1d0>
    1cfc:	040007b7          	lui	a5,0x4000
    1d00:	00fe6e33          	or	t3,t3,a5
    1d04:	47ed                	li	a5,27
    1d06:	0ce7cc63          	blt	a5,a4,1dde <__addsf3+0x366>
    1d0a:	02000793          	li	a5,32
    1d0e:	8f99                	sub	a5,a5,a4
    1d10:	00fe17b3          	sll	a5,t3,a5
    1d14:	00ee5733          	srl	a4,t3,a4
    1d18:	00f037b3          	snez	a5,a5
    1d1c:	8fd9                	or	a5,a5,a4
    1d1e:	97f6                	add	a5,a5,t4
    1d20:	84c2                	mv	s1,a6
    1d22:	b5c9                	j	1be4 <__addsf3+0x16c>
    1d24:	0ff00793          	li	a5,255
    1d28:	f0f80fe3          	beq	a6,a5,1c46 <__addsf3+0x1ce>
    1d2c:	040007b7          	lui	a5,0x4000
    1d30:	00fe6e33          	or	t3,t3,a5
    1d34:	47ed                	li	a5,27
    1d36:	08e7c363          	blt	a5,a4,1dbc <__addsf3+0x344>
    1d3a:	02000693          	li	a3,32
    1d3e:	8e99                	sub	a3,a3,a4
    1d40:	00de16b3          	sll	a3,t3,a3
    1d44:	00ee57b3          	srl	a5,t3,a4
    1d48:	00d03733          	snez	a4,a3
    1d4c:	8fd9                	or	a5,a5,a4
    1d4e:	40fe87b3          	sub	a5,t4,a5
    1d52:	84c2                	mv	s1,a6
    1d54:	892e                	mv	s2,a1
    1d56:	b345                	j	1af6 <__addsf3+0x7e>
    1d58:	4785                	li	a5,1
    1d5a:	bb61                	j	1af2 <__addsf3+0x7a>
    1d5c:	060e0e63          	beqz	t3,1dd8 <__addsf3+0x360>
    1d60:	177d                	addi	a4,a4,-1
    1d62:	01de07b3          	add	a5,t3,t4
    1d66:	84c2                	mv	s1,a6
    1d68:	e6070ee3          	beqz	a4,1be4 <__addsf3+0x16c>
    1d6c:	0ff00793          	li	a5,255
    1d70:	f8f81ae3          	bne	a6,a5,1d04 <__addsf3+0x28c>
    1d74:	8336                	mv	t1,a3
    1d76:	b565                	j	1c1e <__addsf3+0x1a6>
    1d78:	8336                	mv	t1,a3
    1d7a:	84c2                	mv	s1,a6
    1d7c:	892e                	mv	s2,a1
    1d7e:	b715                	j	1ca2 <__addsf3+0x22a>
    1d80:	ec0e04e3          	beqz	t3,1c48 <__addsf3+0x1d0>
    1d84:	e80e8de3          	beqz	t4,1c1e <__addsf3+0x1a6>
    1d88:	bd69                	j	1c22 <__addsf3+0x1aa>
    1d8a:	020e8d63          	beqz	t4,1dc4 <__addsf3+0x34c>
    1d8e:	862e                	mv	a2,a1
    1d90:	87b6                	mv	a5,a3
    1d92:	b3f9                	j	1b60 <__addsf3+0xe8>
    1d94:	0ff00793          	li	a5,255
    1d98:	f2f481e3          	beq	s1,a5,1cba <__addsf3+0x242>
    1d9c:	01de07b3          	add	a5,t3,t4
    1da0:	8385                	srli	a5,a5,0x1
    1da2:	bdd5                	j	1c96 <__addsf3+0x21e>
    1da4:	41ce8433          	sub	s0,t4,t3
    1da8:	892e                	mv	s2,a1
    1daa:	bbb1                	j	1b06 <__addsf3+0x8e>
    1dac:	fc0e1ce3          	bnez	t3,1d84 <__addsf3+0x30c>
    1db0:	e60e89e3          	beqz	t4,1c22 <__addsf3+0x1aa>
    1db4:	892e                	mv	s2,a1
    1db6:	bd49                	j	1c48 <__addsf3+0x1d0>
    1db8:	4785                	li	a5,1
    1dba:	b525                	j	1be2 <__addsf3+0x16a>
    1dbc:	4785                	li	a5,1
    1dbe:	bf41                	j	1d4e <__addsf3+0x2d6>
    1dc0:	ec079be3          	bnez	a5,1c96 <__addsf3+0x21e>
    1dc4:	4601                	li	a2,0
    1dc6:	4781                	li	a5,0
    1dc8:	bb61                	j	1b60 <__addsf3+0xe8>
    1dca:	41ce87b3          	sub	a5,t4,t3
    1dce:	84c2                	mv	s1,a6
    1dd0:	892e                	mv	s2,a1
    1dd2:	b315                	j	1af6 <__addsf3+0x7e>
    1dd4:	87b6                	mv	a5,a3
    1dd6:	b369                	j	1b60 <__addsf3+0xe8>
    1dd8:	8336                	mv	t1,a3
    1dda:	84c2                	mv	s1,a6
    1ddc:	b5d9                	j	1ca2 <__addsf3+0x22a>
    1dde:	4785                	li	a5,1
    1de0:	bf3d                	j	1d1e <__addsf3+0x2a6>

00001de2 <__divsf3>:
    1de2:	7139                	addi	sp,sp,-64
    1de4:	01755793          	srli	a5,a0,0x17
    1de8:	d84a                	sw	s2,48(sp)
    1dea:	d256                	sw	s5,36(sp)
    1dec:	ce5e                	sw	s7,28(sp)
    1dee:	00951a93          	slli	s5,a0,0x9
    1df2:	01f55913          	srli	s2,a0,0x1f
    1df6:	de06                	sw	ra,60(sp)
    1df8:	dc22                	sw	s0,56(sp)
    1dfa:	da26                	sw	s1,52(sp)
    1dfc:	d64e                	sw	s3,44(sp)
    1dfe:	d452                	sw	s4,40(sp)
    1e00:	d05a                	sw	s6,32(sp)
    1e02:	0ff7f793          	andi	a5,a5,255
    1e06:	009ada93          	srli	s5,s5,0x9
    1e0a:	8bca                	mv	s7,s2
    1e0c:	12078263          	beqz	a5,1f30 <__divsf3+0x14e>
    1e10:	0ff00713          	li	a4,255
    1e14:	12e78463          	beq	a5,a4,1f3c <__divsf3+0x15a>
    1e18:	0a8e                	slli	s5,s5,0x3
    1e1a:	04000737          	lui	a4,0x4000
    1e1e:	00eaeab3          	or	s5,s5,a4
    1e22:	f8178a13          	addi	s4,a5,-127 # 3ffff81 <_data_lma+0x3ffc10d>
    1e26:	4401                	li	s0,0
    1e28:	4b01                	li	s6,0
    1e2a:	0175d793          	srli	a5,a1,0x17
    1e2e:	00959493          	slli	s1,a1,0x9
    1e32:	0ff7f793          	andi	a5,a5,255
    1e36:	80a5                	srli	s1,s1,0x9
    1e38:	01f5d993          	srli	s3,a1,0x1f
    1e3c:	c7fd                	beqz	a5,1f2a <__divsf3+0x148>
    1e3e:	0ff00713          	li	a4,255
    1e42:	02e78763          	beq	a5,a4,1e70 <__divsf3+0x8e>
    1e46:	048e                	slli	s1,s1,0x3
    1e48:	f8178793          	addi	a5,a5,-127
    1e4c:	04000737          	lui	a4,0x4000
    1e50:	8cd9                	or	s1,s1,a4
    1e52:	40fa0a33          	sub	s4,s4,a5
    1e56:	4681                	li	a3,0
    1e58:	8c55                	or	s0,s0,a3
    1e5a:	00002717          	auipc	a4,0x2
    1e5e:	dbe70713          	addi	a4,a4,-578 # 3c18 <_read+0x68>
    1e62:	040a                	slli	s0,s0,0x2
    1e64:	943a                	add	s0,s0,a4
    1e66:	401c                	lw	a5,0(s0)
    1e68:	01394933          	xor	s2,s2,s3
    1e6c:	97ba                	add	a5,a5,a4
    1e6e:	8782                	jr	a5
    1e70:	f01a0a13          	addi	s4,s4,-255
    1e74:	e8f9                	bnez	s1,1f4a <__divsf3+0x168>
    1e76:	4689                	li	a3,2
    1e78:	8c55                	or	s0,s0,a3
    1e7a:	00002717          	auipc	a4,0x2
    1e7e:	dde70713          	addi	a4,a4,-546 # 3c58 <_read+0xa8>
    1e82:	040a                	slli	s0,s0,0x2
    1e84:	943a                	add	s0,s0,a4
    1e86:	401c                	lw	a5,0(s0)
    1e88:	01394933          	xor	s2,s2,s3
    1e8c:	97ba                	add	a5,a5,a4
    1e8e:	8782                	jr	a5
    1e90:	4901                	li	s2,0
    1e92:	0ff00713          	li	a4,255
    1e96:	004007b7          	lui	a5,0x400
    1e9a:	00979513          	slli	a0,a5,0x9
    1e9e:	50f2                	lw	ra,60(sp)
    1ea0:	5462                	lw	s0,56(sp)
    1ea2:	01771793          	slli	a5,a4,0x17
    1ea6:	8125                	srli	a0,a0,0x9
    1ea8:	097e                	slli	s2,s2,0x1f
    1eaa:	8d5d                	or	a0,a0,a5
    1eac:	01256533          	or	a0,a0,s2
    1eb0:	54d2                	lw	s1,52(sp)
    1eb2:	5942                	lw	s2,48(sp)
    1eb4:	59b2                	lw	s3,44(sp)
    1eb6:	5a22                	lw	s4,40(sp)
    1eb8:	5a92                	lw	s5,36(sp)
    1eba:	5b02                	lw	s6,32(sp)
    1ebc:	4bf2                	lw	s7,28(sp)
    1ebe:	6121                	addi	sp,sp,64
    1ec0:	8082                	ret
    1ec2:	0ff00713          	li	a4,255
    1ec6:	4781                	li	a5,0
    1ec8:	bfc9                	j	1e9a <__divsf3+0xb8>
    1eca:	8aa6                	mv	s5,s1
    1ecc:	8bce                	mv	s7,s3
    1ece:	8b36                	mv	s6,a3
    1ed0:	4789                	li	a5,2
    1ed2:	1afb0b63          	beq	s6,a5,2088 <__divsf3+0x2a6>
    1ed6:	478d                	li	a5,3
    1ed8:	fafb0ce3          	beq	s6,a5,1e90 <__divsf3+0xae>
    1edc:	4785                	li	a5,1
    1ede:	0afb0a63          	beq	s6,a5,1f92 <__divsf3+0x1b0>
    1ee2:	07fa0713          	addi	a4,s4,127
    1ee6:	001bf913          	andi	s2,s7,1
    1eea:	12e05763          	blez	a4,2018 <__divsf3+0x236>
    1eee:	007af793          	andi	a5,s5,7
    1ef2:	c799                	beqz	a5,1f00 <__divsf3+0x11e>
    1ef4:	00faf793          	andi	a5,s5,15
    1ef8:	4691                	li	a3,4
    1efa:	00d78363          	beq	a5,a3,1f00 <__divsf3+0x11e>
    1efe:	0a91                	addi	s5,s5,4
    1f00:	004a9793          	slli	a5,s5,0x4
    1f04:	0007d963          	bgez	a5,1f16 <__divsf3+0x134>
    1f08:	f80007b7          	lui	a5,0xf8000
    1f0c:	17fd                	addi	a5,a5,-1
    1f0e:	00fafab3          	and	s5,s5,a5
    1f12:	080a0713          	addi	a4,s4,128
    1f16:	0fe00793          	li	a5,254
    1f1a:	fae7c4e3          	blt	a5,a4,1ec2 <__divsf3+0xe0>
    1f1e:	006a9793          	slli	a5,s5,0x6
    1f22:	83a5                	srli	a5,a5,0x9
    1f24:	0ff77713          	andi	a4,a4,255
    1f28:	bf8d                	j	1e9a <__divsf3+0xb8>
    1f2a:	e4b9                	bnez	s1,1f78 <__divsf3+0x196>
    1f2c:	4685                	li	a3,1
    1f2e:	b7a9                	j	1e78 <__divsf3+0x96>
    1f30:	020a9463          	bnez	s5,1f58 <__divsf3+0x176>
    1f34:	4411                	li	s0,4
    1f36:	4a01                	li	s4,0
    1f38:	4b05                	li	s6,1
    1f3a:	bdc5                	j	1e2a <__divsf3+0x48>
    1f3c:	000a9963          	bnez	s5,1f4e <__divsf3+0x16c>
    1f40:	4421                	li	s0,8
    1f42:	0ff00a13          	li	s4,255
    1f46:	4b09                	li	s6,2
    1f48:	b5cd                	j	1e2a <__divsf3+0x48>
    1f4a:	468d                	li	a3,3
    1f4c:	b731                	j	1e58 <__divsf3+0x76>
    1f4e:	4431                	li	s0,12
    1f50:	0ff00a13          	li	s4,255
    1f54:	4b0d                	li	s6,3
    1f56:	bdd1                	j	1e2a <__divsf3+0x48>
    1f58:	8556                	mv	a0,s5
    1f5a:	c62e                	sw	a1,12(sp)
    1f5c:	313000ef          	jal	ra,2a6e <__clzsi2>
    1f60:	ffb50793          	addi	a5,a0,-5
    1f64:	00fa9ab3          	sll	s5,s5,a5
    1f68:	f8a00793          	li	a5,-118
    1f6c:	40a78a33          	sub	s4,a5,a0
    1f70:	4401                	li	s0,0
    1f72:	4b01                	li	s6,0
    1f74:	45b2                	lw	a1,12(sp)
    1f76:	bd55                	j	1e2a <__divsf3+0x48>
    1f78:	8526                	mv	a0,s1
    1f7a:	2f5000ef          	jal	ra,2a6e <__clzsi2>
    1f7e:	ffb50713          	addi	a4,a0,-5
    1f82:	00aa07b3          	add	a5,s4,a0
    1f86:	00e494b3          	sll	s1,s1,a4
    1f8a:	07678a13          	addi	s4,a5,118 # f8000076 <_eusrstack+0xd7ffb076>
    1f8e:	4681                	li	a3,0
    1f90:	b5e1                	j	1e58 <__divsf3+0x76>
    1f92:	001bf913          	andi	s2,s7,1
    1f96:	4701                	li	a4,0
    1f98:	4781                	li	a5,0
    1f9a:	b701                	j	1e9a <__divsf3+0xb8>
    1f9c:	6641                	lui	a2,0x10
    1f9e:	00549513          	slli	a0,s1,0x5
    1fa2:	167d                	addi	a2,a2,-1
    1fa4:	01055793          	srli	a5,a0,0x10
    1fa8:	8e69                	and	a2,a2,a0
    1faa:	0a9afa63          	bgeu	s5,s1,205e <__divsf3+0x27c>
    1fae:	02fad5b3          	divu	a1,s5,a5
    1fb2:	1a7d                	addi	s4,s4,-1
    1fb4:	86d6                	mv	a3,s5
    1fb6:	4701                	li	a4,0
    1fb8:	02c58833          	mul	a6,a1,a2
    1fbc:	02f6f6b3          	remu	a3,a3,a5
    1fc0:	06c2                	slli	a3,a3,0x10
    1fc2:	8f55                	or	a4,a4,a3
    1fc4:	01077b63          	bgeu	a4,a6,1fda <__divsf3+0x1f8>
    1fc8:	972a                	add	a4,a4,a0
    1fca:	fff58693          	addi	a3,a1,-1
    1fce:	0aa76863          	bltu	a4,a0,207e <__divsf3+0x29c>
    1fd2:	0b077663          	bgeu	a4,a6,207e <__divsf3+0x29c>
    1fd6:	15f9                	addi	a1,a1,-2
    1fd8:	972a                	add	a4,a4,a0
    1fda:	41070733          	sub	a4,a4,a6
    1fde:	02f756b3          	divu	a3,a4,a5
    1fe2:	02f77733          	remu	a4,a4,a5
    1fe6:	02c68ab3          	mul	s5,a3,a2
    1fea:	01071793          	slli	a5,a4,0x10
    1fee:	0157fb63          	bgeu	a5,s5,2004 <__divsf3+0x222>
    1ff2:	97aa                	add	a5,a5,a0
    1ff4:	fff68713          	addi	a4,a3,-1 # 7dffffff <_eusrstack+0x5dffafff>
    1ff8:	08a7e163          	bltu	a5,a0,207a <__divsf3+0x298>
    1ffc:	0757ff63          	bgeu	a5,s5,207a <__divsf3+0x298>
    2000:	16f9                	addi	a3,a3,-2
    2002:	97aa                	add	a5,a5,a0
    2004:	05c2                	slli	a1,a1,0x10
    2006:	41578ab3          	sub	s5,a5,s5
    200a:	8dd5                	or	a1,a1,a3
    200c:	01503ab3          	snez	s5,s5
    2010:	0155eab3          	or	s5,a1,s5
    2014:	8bca                	mv	s7,s2
    2016:	b5f1                	j	1ee2 <__divsf3+0x100>
    2018:	4685                	li	a3,1
    201a:	8e99                	sub	a3,a3,a4
    201c:	c711                	beqz	a4,2028 <__divsf3+0x246>
    201e:	466d                	li	a2,27
    2020:	4701                	li	a4,0
    2022:	4781                	li	a5,0
    2024:	e6d64be3          	blt	a2,a3,1e9a <__divsf3+0xb8>
    2028:	09ea0a13          	addi	s4,s4,158
    202c:	014a9a33          	sll	s4,s5,s4
    2030:	00dad7b3          	srl	a5,s5,a3
    2034:	01403ab3          	snez	s5,s4
    2038:	0157e7b3          	or	a5,a5,s5
    203c:	0077f713          	andi	a4,a5,7
    2040:	c719                	beqz	a4,204e <__divsf3+0x26c>
    2042:	00f7f713          	andi	a4,a5,15
    2046:	4691                	li	a3,4
    2048:	00d70363          	beq	a4,a3,204e <__divsf3+0x26c>
    204c:	0791                	addi	a5,a5,4
    204e:	00579713          	slli	a4,a5,0x5
    2052:	02074863          	bltz	a4,2082 <__divsf3+0x2a0>
    2056:	079a                	slli	a5,a5,0x6
    2058:	83a5                	srli	a5,a5,0x9
    205a:	4701                	li	a4,0
    205c:	bd3d                	j	1e9a <__divsf3+0xb8>
    205e:	001ad693          	srli	a3,s5,0x1
    2062:	02f6d5b3          	divu	a1,a3,a5
    2066:	01fa9713          	slli	a4,s5,0x1f
    206a:	8341                	srli	a4,a4,0x10
    206c:	02c58833          	mul	a6,a1,a2
    2070:	b7b1                	j	1fbc <__divsf3+0x1da>
    2072:	8bce                	mv	s7,s3
    2074:	8b36                	mv	s6,a3
    2076:	4a81                	li	s5,0
    2078:	bda1                	j	1ed0 <__divsf3+0xee>
    207a:	86ba                	mv	a3,a4
    207c:	b761                	j	2004 <__divsf3+0x222>
    207e:	85b6                	mv	a1,a3
    2080:	bfa9                	j	1fda <__divsf3+0x1f8>
    2082:	4705                	li	a4,1
    2084:	4781                	li	a5,0
    2086:	bd11                	j	1e9a <__divsf3+0xb8>
    2088:	001bf913          	andi	s2,s7,1
    208c:	0ff00713          	li	a4,255
    2090:	4781                	li	a5,0
    2092:	b521                	j	1e9a <__divsf3+0xb8>

00002094 <__lesf2>:
    2094:	01755693          	srli	a3,a0,0x17
    2098:	008007b7          	lui	a5,0x800
    209c:	17fd                	addi	a5,a5,-1
    209e:	0175d613          	srli	a2,a1,0x17
    20a2:	0ff6f693          	andi	a3,a3,255
    20a6:	0ff00813          	li	a6,255
    20aa:	00a7f8b3          	and	a7,a5,a0
    20ae:	01f55713          	srli	a4,a0,0x1f
    20b2:	8fed                	and	a5,a5,a1
    20b4:	0ff67613          	andi	a2,a2,255
    20b8:	81fd                	srli	a1,a1,0x1f
    20ba:	03068763          	beq	a3,a6,20e8 <__lesf2+0x54>
    20be:	01060963          	beq	a2,a6,20d0 <__lesf2+0x3c>
    20c2:	ea85                	bnez	a3,20f2 <__lesf2+0x5e>
    20c4:	ea11                	bnez	a2,20d8 <__lesf2+0x44>
    20c6:	eb89                	bnez	a5,20d8 <__lesf2+0x44>
    20c8:	4501                	li	a0,0
    20ca:	00089b63          	bnez	a7,20e0 <__lesf2+0x4c>
    20ce:	8082                	ret
    20d0:	4509                	li	a0,2
    20d2:	fff5                	bnez	a5,20ce <__lesf2+0x3a>
    20d4:	dae5                	beqz	a3,20c4 <__lesf2+0x30>
    20d6:	a831                	j	20f2 <__lesf2+0x5e>
    20d8:	02088c63          	beqz	a7,2110 <__lesf2+0x7c>
    20dc:	04b70063          	beq	a4,a1,211c <__lesf2+0x88>
    20e0:	4505                	li	a0,1
    20e2:	d775                	beqz	a4,20ce <__lesf2+0x3a>
    20e4:	557d                	li	a0,-1
    20e6:	8082                	ret
    20e8:	4509                	li	a0,2
    20ea:	02089863          	bnez	a7,211a <__lesf2+0x86>
    20ee:	02d60463          	beq	a2,a3,2116 <__lesf2+0x82>
    20f2:	e211                	bnez	a2,20f6 <__lesf2+0x62>
    20f4:	d7f5                	beqz	a5,20e0 <__lesf2+0x4c>
    20f6:	feb715e3          	bne	a4,a1,20e0 <__lesf2+0x4c>
    20fa:	fed643e3          	blt	a2,a3,20e0 <__lesf2+0x4c>
    20fe:	00c6c763          	blt	a3,a2,210c <__lesf2+0x78>
    2102:	fd17efe3          	bltu	a5,a7,20e0 <__lesf2+0x4c>
    2106:	4501                	li	a0,0
    2108:	fcf8f3e3          	bgeu	a7,a5,20ce <__lesf2+0x3a>
    210c:	e319                	bnez	a4,2112 <__lesf2+0x7e>
    210e:	bfd9                	j	20e4 <__lesf2+0x50>
    2110:	d9f1                	beqz	a1,20e4 <__lesf2+0x50>
    2112:	4505                	li	a0,1
    2114:	8082                	ret
    2116:	d3e5                	beqz	a5,20f6 <__lesf2+0x62>
    2118:	8082                	ret
    211a:	8082                	ret
    211c:	4681                	li	a3,0
    211e:	b7c5                	j	20fe <__lesf2+0x6a>

00002120 <__mulsf3>:
    2120:	7179                	addi	sp,sp,-48
    2122:	d422                	sw	s0,40(sp)
    2124:	01755413          	srli	s0,a0,0x17
    2128:	ce4e                	sw	s3,28(sp)
    212a:	cc52                	sw	s4,24(sp)
    212c:	00951993          	slli	s3,a0,0x9
    2130:	d606                	sw	ra,44(sp)
    2132:	d226                	sw	s1,36(sp)
    2134:	d04a                	sw	s2,32(sp)
    2136:	ca56                	sw	s5,20(sp)
    2138:	c85a                	sw	s6,16(sp)
    213a:	0ff47413          	andi	s0,s0,255
    213e:	0099d993          	srli	s3,s3,0x9
    2142:	01f55a13          	srli	s4,a0,0x1f
    2146:	c469                	beqz	s0,2210 <__mulsf3+0xf0>
    2148:	0ff00793          	li	a5,255
    214c:	0ef40863          	beq	s0,a5,223c <__mulsf3+0x11c>
    2150:	00399793          	slli	a5,s3,0x3
    2154:	04000737          	lui	a4,0x4000
    2158:	00e7e9b3          	or	s3,a5,a4
    215c:	f8140413          	addi	s0,s0,-127 # 3ffff81 <_data_lma+0x3ffc10d>
    2160:	4481                	li	s1,0
    2162:	4b01                	li	s6,0
    2164:	0175d713          	srli	a4,a1,0x17
    2168:	00959a93          	slli	s5,a1,0x9
    216c:	0ff77713          	andi	a4,a4,255
    2170:	009ada93          	srli	s5,s5,0x9
    2174:	01f5d913          	srli	s2,a1,0x1f
    2178:	cf45                	beqz	a4,2230 <__mulsf3+0x110>
    217a:	0ff00793          	li	a5,255
    217e:	02f70c63          	beq	a4,a5,21b6 <__mulsf3+0x96>
    2182:	0a8e                	slli	s5,s5,0x3
    2184:	f8170713          	addi	a4,a4,-127 # 3ffff81 <_data_lma+0x3ffc10d>
    2188:	040007b7          	lui	a5,0x4000
    218c:	00faeab3          	or	s5,s5,a5
    2190:	943a                	add	s0,s0,a4
    2192:	4601                	li	a2,0
    2194:	012a4533          	xor	a0,s4,s2
    2198:	47bd                	li	a5,15
    219a:	86aa                	mv	a3,a0
    219c:	00140593          	addi	a1,s0,1
    21a0:	1097e263          	bltu	a5,s1,22a4 <__mulsf3+0x184>
    21a4:	00002717          	auipc	a4,0x2
    21a8:	af470713          	addi	a4,a4,-1292 # 3c98 <_read+0xe8>
    21ac:	048a                	slli	s1,s1,0x2
    21ae:	94ba                	add	s1,s1,a4
    21b0:	409c                	lw	a5,0(s1)
    21b2:	97ba                	add	a5,a5,a4
    21b4:	8782                	jr	a5
    21b6:	0ff40413          	addi	s0,s0,255
    21ba:	0c0a9863          	bnez	s5,228a <__mulsf3+0x16a>
    21be:	0024e493          	ori	s1,s1,2
    21c2:	4609                	li	a2,2
    21c4:	bfc1                	j	2194 <__mulsf3+0x74>
    21c6:	4501                	li	a0,0
    21c8:	0ff00713          	li	a4,255
    21cc:	004007b7          	lui	a5,0x400
    21d0:	50b2                	lw	ra,44(sp)
    21d2:	5422                	lw	s0,40(sp)
    21d4:	07a6                	slli	a5,a5,0x9
    21d6:	075e                	slli	a4,a4,0x17
    21d8:	83a5                	srli	a5,a5,0x9
    21da:	057e                	slli	a0,a0,0x1f
    21dc:	8fd9                	or	a5,a5,a4
    21de:	5492                	lw	s1,36(sp)
    21e0:	5902                	lw	s2,32(sp)
    21e2:	49f2                	lw	s3,28(sp)
    21e4:	4a62                	lw	s4,24(sp)
    21e6:	4ad2                	lw	s5,20(sp)
    21e8:	4b42                	lw	s6,16(sp)
    21ea:	8d5d                	or	a0,a0,a5
    21ec:	6145                	addi	sp,sp,48
    21ee:	8082                	ret
    21f0:	86ca                	mv	a3,s2
    21f2:	89d6                	mv	s3,s5
    21f4:	8b32                	mv	s6,a2
    21f6:	4789                	li	a5,2
    21f8:	0afb0163          	beq	s6,a5,229a <__mulsf3+0x17a>
    21fc:	478d                	li	a5,3
    21fe:	fcfb04e3          	beq	s6,a5,21c6 <__mulsf3+0xa6>
    2202:	4785                	li	a5,1
    2204:	8536                	mv	a0,a3
    2206:	1afb1263          	bne	s6,a5,23aa <__mulsf3+0x28a>
    220a:	4701                	li	a4,0
    220c:	4781                	li	a5,0
    220e:	b7c9                	j	21d0 <__mulsf3+0xb0>
    2210:	04099e63          	bnez	s3,226c <__mulsf3+0x14c>
    2214:	0175d713          	srli	a4,a1,0x17
    2218:	00959a93          	slli	s5,a1,0x9
    221c:	0ff77713          	andi	a4,a4,255
    2220:	4491                	li	s1,4
    2222:	4401                	li	s0,0
    2224:	4b05                	li	s6,1
    2226:	009ada93          	srli	s5,s5,0x9
    222a:	01f5d913          	srli	s2,a1,0x1f
    222e:	f731                	bnez	a4,217a <__mulsf3+0x5a>
    2230:	000a9d63          	bnez	s5,224a <__mulsf3+0x12a>
    2234:	0014e493          	ori	s1,s1,1
    2238:	4605                	li	a2,1
    223a:	bfa9                	j	2194 <__mulsf3+0x74>
    223c:	02099363          	bnez	s3,2262 <__mulsf3+0x142>
    2240:	44a1                	li	s1,8
    2242:	0ff00413          	li	s0,255
    2246:	4b09                	li	s6,2
    2248:	bf31                	j	2164 <__mulsf3+0x44>
    224a:	8556                	mv	a0,s5
    224c:	023000ef          	jal	ra,2a6e <__clzsi2>
    2250:	ffb50793          	addi	a5,a0,-5
    2254:	8c09                	sub	s0,s0,a0
    2256:	00fa9ab3          	sll	s5,s5,a5
    225a:	f8a40413          	addi	s0,s0,-118
    225e:	4601                	li	a2,0
    2260:	bf15                	j	2194 <__mulsf3+0x74>
    2262:	44b1                	li	s1,12
    2264:	0ff00413          	li	s0,255
    2268:	4b0d                	li	s6,3
    226a:	bded                	j	2164 <__mulsf3+0x44>
    226c:	854e                	mv	a0,s3
    226e:	c62e                	sw	a1,12(sp)
    2270:	7fe000ef          	jal	ra,2a6e <__clzsi2>
    2274:	ffb50793          	addi	a5,a0,-5
    2278:	f8a00413          	li	s0,-118
    227c:	00f999b3          	sll	s3,s3,a5
    2280:	8c09                	sub	s0,s0,a0
    2282:	4481                	li	s1,0
    2284:	4b01                	li	s6,0
    2286:	45b2                	lw	a1,12(sp)
    2288:	bdf1                	j	2164 <__mulsf3+0x44>
    228a:	0034e493          	ori	s1,s1,3
    228e:	460d                	li	a2,3
    2290:	b711                	j	2194 <__mulsf3+0x74>
    2292:	4789                	li	a5,2
    2294:	86d2                	mv	a3,s4
    2296:	f6fb13e3          	bne	s6,a5,21fc <__mulsf3+0xdc>
    229a:	8536                	mv	a0,a3
    229c:	0ff00713          	li	a4,255
    22a0:	4781                	li	a5,0
    22a2:	b73d                	j	21d0 <__mulsf3+0xb0>
    22a4:	6341                	lui	t1,0x10
    22a6:	fff30693          	addi	a3,t1,-1 # ffff <_data_lma+0xc18b>
    22aa:	0109d613          	srli	a2,s3,0x10
    22ae:	010ad893          	srli	a7,s5,0x10
    22b2:	00d9f7b3          	and	a5,s3,a3
    22b6:	00dafab3          	and	s5,s5,a3
    22ba:	03578833          	mul	a6,a5,s5
    22be:	02f889b3          	mul	s3,a7,a5
    22c2:	01085713          	srli	a4,a6,0x10
    22c6:	03560ab3          	mul	s5,a2,s5
    22ca:	99d6                	add	s3,s3,s5
    22cc:	974e                	add	a4,a4,s3
    22ce:	03160633          	mul	a2,a2,a7
    22d2:	01577363          	bgeu	a4,s5,22d8 <__mulsf3+0x1b8>
    22d6:	961a                	add	a2,a2,t1
    22d8:	67c1                	lui	a5,0x10
    22da:	17fd                	addi	a5,a5,-1
    22dc:	00f776b3          	and	a3,a4,a5
    22e0:	00f87833          	and	a6,a6,a5
    22e4:	06c2                	slli	a3,a3,0x10
    22e6:	96c2                	add	a3,a3,a6
    22e8:	00669993          	slli	s3,a3,0x6
    22ec:	01075793          	srli	a5,a4,0x10
    22f0:	013039b3          	snez	s3,s3
    22f4:	82e9                	srli	a3,a3,0x1a
    22f6:	97b2                	add	a5,a5,a2
    22f8:	079a                	slli	a5,a5,0x6
    22fa:	00d9e6b3          	or	a3,s3,a3
    22fe:	00d7e9b3          	or	s3,a5,a3
    2302:	00499793          	slli	a5,s3,0x4
    2306:	0007d963          	bgez	a5,2318 <__mulsf3+0x1f8>
    230a:	0019d713          	srli	a4,s3,0x1
    230e:	0019f793          	andi	a5,s3,1
    2312:	00f769b3          	or	s3,a4,a5
    2316:	842e                	mv	s0,a1
    2318:	07f40713          	addi	a4,s0,127
    231c:	04e05063          	blez	a4,235c <__mulsf3+0x23c>
    2320:	0079f793          	andi	a5,s3,7
    2324:	c799                	beqz	a5,2332 <__mulsf3+0x212>
    2326:	00f9f793          	andi	a5,s3,15
    232a:	4691                	li	a3,4
    232c:	00d78363          	beq	a5,a3,2332 <__mulsf3+0x212>
    2330:	0991                	addi	s3,s3,4
    2332:	00499793          	slli	a5,s3,0x4
    2336:	0007d963          	bgez	a5,2348 <__mulsf3+0x228>
    233a:	f80007b7          	lui	a5,0xf8000
    233e:	17fd                	addi	a5,a5,-1
    2340:	00f9f9b3          	and	s3,s3,a5
    2344:	08040713          	addi	a4,s0,128
    2348:	0fe00793          	li	a5,254
    234c:	04e7cb63          	blt	a5,a4,23a2 <__mulsf3+0x282>
    2350:	00699793          	slli	a5,s3,0x6
    2354:	83a5                	srli	a5,a5,0x9
    2356:	0ff77713          	andi	a4,a4,255
    235a:	bd9d                	j	21d0 <__mulsf3+0xb0>
    235c:	4785                	li	a5,1
    235e:	40e786b3          	sub	a3,a5,a4
    2362:	c711                	beqz	a4,236e <__mulsf3+0x24e>
    2364:	466d                	li	a2,27
    2366:	4701                	li	a4,0
    2368:	4781                	li	a5,0
    236a:	e6d643e3          	blt	a2,a3,21d0 <__mulsf3+0xb0>
    236e:	09e40713          	addi	a4,s0,158
    2372:	00e99733          	sll	a4,s3,a4
    2376:	00e03733          	snez	a4,a4
    237a:	00d9d7b3          	srl	a5,s3,a3
    237e:	8fd9                	or	a5,a5,a4
    2380:	0077f713          	andi	a4,a5,7
    2384:	c719                	beqz	a4,2392 <__mulsf3+0x272>
    2386:	00f7f713          	andi	a4,a5,15
    238a:	4691                	li	a3,4
    238c:	00d70363          	beq	a4,a3,2392 <__mulsf3+0x272>
    2390:	0791                	addi	a5,a5,4
    2392:	00579713          	slli	a4,a5,0x5
    2396:	00074c63          	bltz	a4,23ae <__mulsf3+0x28e>
    239a:	079a                	slli	a5,a5,0x6
    239c:	83a5                	srli	a5,a5,0x9
    239e:	4701                	li	a4,0
    23a0:	bd05                	j	21d0 <__mulsf3+0xb0>
    23a2:	0ff00713          	li	a4,255
    23a6:	4781                	li	a5,0
    23a8:	b525                	j	21d0 <__mulsf3+0xb0>
    23aa:	842e                	mv	s0,a1
    23ac:	b7b5                	j	2318 <__mulsf3+0x1f8>
    23ae:	4705                	li	a4,1
    23b0:	4781                	li	a5,0
    23b2:	bd39                	j	21d0 <__mulsf3+0xb0>

000023b4 <__subsf3>:
    23b4:	00800737          	lui	a4,0x800
    23b8:	1141                	addi	sp,sp,-16
    23ba:	177d                	addi	a4,a4,-1
    23bc:	01755693          	srli	a3,a0,0x17
    23c0:	0175d813          	srli	a6,a1,0x17
    23c4:	00a777b3          	and	a5,a4,a0
    23c8:	0ff6f693          	andi	a3,a3,255
    23cc:	01f55e93          	srli	t4,a0,0x1f
    23d0:	00b77633          	and	a2,a4,a1
    23d4:	c226                	sw	s1,4(sp)
    23d6:	c04a                	sw	s2,0(sp)
    23d8:	0ff87813          	andi	a6,a6,255
    23dc:	c606                	sw	ra,12(sp)
    23de:	c422                	sw	s0,8(sp)
    23e0:	0ff00313          	li	t1,255
    23e4:	8e3e                	mv	t3,a5
    23e6:	8936                	mv	s2,a3
    23e8:	84f6                	mv	s1,t4
    23ea:	00379f13          	slli	t5,a5,0x3
    23ee:	81fd                	srli	a1,a1,0x1f
    23f0:	00361513          	slli	a0,a2,0x3
    23f4:	410688b3          	sub	a7,a3,a6
    23f8:	10680263          	beq	a6,t1,24fc <__subsf3+0x148>
    23fc:	0015c593          	xori	a1,a1,1
    2400:	10be8c63          	beq	t4,a1,2518 <__subsf3+0x164>
    2404:	0d105463          	blez	a7,24cc <__subsf3+0x118>
    2408:	10081063          	bnez	a6,2508 <__subsf3+0x154>
    240c:	1e050463          	beqz	a0,25f4 <__subsf3+0x240>
    2410:	18fd                	addi	a7,a7,-1
    2412:	40af07b3          	sub	a5,t5,a0
    2416:	02088663          	beqz	a7,2442 <__subsf3+0x8e>
    241a:	0ff00793          	li	a5,255
    241e:	16f68863          	beq	a3,a5,258e <__subsf3+0x1da>
    2422:	47ed                	li	a5,27
    2424:	2917c763          	blt	a5,a7,26b2 <__subsf3+0x2fe>
    2428:	02000713          	li	a4,32
    242c:	41170733          	sub	a4,a4,a7
    2430:	00e51733          	sll	a4,a0,a4
    2434:	011557b3          	srl	a5,a0,a7
    2438:	00e03733          	snez	a4,a4
    243c:	8fd9                	or	a5,a5,a4
    243e:	40ff07b3          	sub	a5,t5,a5
    2442:	00579713          	slli	a4,a5,0x5
    2446:	1a075163          	bgez	a4,25e8 <__subsf3+0x234>
    244a:	04000437          	lui	s0,0x4000
    244e:	147d                	addi	s0,s0,-1
    2450:	8c7d                	and	s0,s0,a5
    2452:	8522                	mv	a0,s0
    2454:	2d29                	jal	2a6e <__clzsi2>
    2456:	156d                	addi	a0,a0,-5
    2458:	00a417b3          	sll	a5,s0,a0
    245c:	1b254e63          	blt	a0,s2,2618 <__subsf3+0x264>
    2460:	41250533          	sub	a0,a0,s2
    2464:	00150413          	addi	s0,a0,1
    2468:	02000713          	li	a4,32
    246c:	8f01                	sub	a4,a4,s0
    246e:	00e79733          	sll	a4,a5,a4
    2472:	00e03733          	snez	a4,a4
    2476:	0087d7b3          	srl	a5,a5,s0
    247a:	8fd9                	or	a5,a5,a4
    247c:	4901                	li	s2,0
    247e:	0077f713          	andi	a4,a5,7
    2482:	c719                	beqz	a4,2490 <__subsf3+0xdc>
    2484:	00f7f713          	andi	a4,a5,15
    2488:	4691                	li	a3,4
    248a:	00d70363          	beq	a4,a3,2490 <__subsf3+0xdc>
    248e:	0791                	addi	a5,a5,4
    2490:	00579713          	slli	a4,a5,0x5
    2494:	14075e63          	bgez	a4,25f0 <__subsf3+0x23c>
    2498:	00190693          	addi	a3,s2,1 # 800001 <_data_lma+0x7fc18d>
    249c:	0ff00713          	li	a4,255
    24a0:	0014fe93          	andi	t4,s1,1
    24a4:	16e68663          	beq	a3,a4,2610 <__subsf3+0x25c>
    24a8:	079a                	slli	a5,a5,0x6
    24aa:	83a5                	srli	a5,a5,0x9
    24ac:	0ff6f693          	andi	a3,a3,255
    24b0:	07a6                	slli	a5,a5,0x9
    24b2:	40b2                	lw	ra,12(sp)
    24b4:	4422                	lw	s0,8(sp)
    24b6:	0097d513          	srli	a0,a5,0x9
    24ba:	06de                	slli	a3,a3,0x17
    24bc:	01fe9793          	slli	a5,t4,0x1f
    24c0:	8d55                	or	a0,a0,a3
    24c2:	4492                	lw	s1,4(sp)
    24c4:	4902                	lw	s2,0(sp)
    24c6:	8d5d                	or	a0,a0,a5
    24c8:	0141                	addi	sp,sp,16
    24ca:	8082                	ret
    24cc:	0a089263          	bnez	a7,2570 <__subsf3+0x1bc>
    24d0:	00168713          	addi	a4,a3,1
    24d4:	0fe77713          	andi	a4,a4,254
    24d8:	14071b63          	bnez	a4,262e <__subsf3+0x27a>
    24dc:	22069463          	bnez	a3,2704 <__subsf3+0x350>
    24e0:	200f0263          	beqz	t5,26e4 <__subsf3+0x330>
    24e4:	d571                	beqz	a0,24b0 <__subsf3+0xfc>
    24e6:	40af07b3          	sub	a5,t5,a0
    24ea:	00579713          	slli	a4,a5,0x5
    24ee:	22075563          	bgez	a4,2718 <__subsf3+0x364>
    24f2:	41e507b3          	sub	a5,a0,t5
    24f6:	4901                	li	s2,0
    24f8:	84ae                	mv	s1,a1
    24fa:	b751                	j	247e <__subsf3+0xca>
    24fc:	f00500e3          	beqz	a0,23fc <__subsf3+0x48>
    2500:	0abe8a63          	beq	t4,a1,25b4 <__subsf3+0x200>
    2504:	fd1054e3          	blez	a7,24cc <__subsf3+0x118>
    2508:	0ff00793          	li	a5,255
    250c:	08f68163          	beq	a3,a5,258e <__subsf3+0x1da>
    2510:	040007b7          	lui	a5,0x4000
    2514:	8d5d                	or	a0,a0,a5
    2516:	b731                	j	2422 <__subsf3+0x6e>
    2518:	09105e63          	blez	a7,25b4 <__subsf3+0x200>
    251c:	08080163          	beqz	a6,259e <__subsf3+0x1ea>
    2520:	0ff00793          	li	a5,255
    2524:	06f68563          	beq	a3,a5,258e <__subsf3+0x1da>
    2528:	040007b7          	lui	a5,0x4000
    252c:	8d5d                	or	a0,a0,a5
    252e:	47ed                	li	a5,27
    2530:	1f17c063          	blt	a5,a7,2710 <__subsf3+0x35c>
    2534:	02000713          	li	a4,32
    2538:	41170733          	sub	a4,a4,a7
    253c:	00e51733          	sll	a4,a0,a4
    2540:	011557b3          	srl	a5,a0,a7
    2544:	00e03733          	snez	a4,a4
    2548:	8fd9                	or	a5,a5,a4
    254a:	97fa                	add	a5,a5,t5
    254c:	00579713          	slli	a4,a5,0x5
    2550:	08075c63          	bgez	a4,25e8 <__subsf3+0x234>
    2554:	0905                	addi	s2,s2,1
    2556:	0ff00713          	li	a4,255
    255a:	0ae90b63          	beq	s2,a4,2610 <__subsf3+0x25c>
    255e:	7e0006b7          	lui	a3,0x7e000
    2562:	0017d713          	srli	a4,a5,0x1
    2566:	16fd                	addi	a3,a3,-1
    2568:	8b85                	andi	a5,a5,1
    256a:	8f75                	and	a4,a4,a3
    256c:	8fd9                	or	a5,a5,a4
    256e:	bf01                	j	247e <__subsf3+0xca>
    2570:	40d80733          	sub	a4,a6,a3
    2574:	10069563          	bnez	a3,267e <__subsf3+0x2ca>
    2578:	140f0d63          	beqz	t5,26d2 <__subsf3+0x31e>
    257c:	177d                	addi	a4,a4,-1
    257e:	1a070363          	beqz	a4,2724 <__subsf3+0x370>
    2582:	0ff00793          	li	a5,255
    2586:	10f81463          	bne	a6,a5,268e <__subsf3+0x2da>
    258a:	84ae                	mv	s1,a1
    258c:	8e32                	mv	t3,a2
    258e:	060e0f63          	beqz	t3,260c <__subsf3+0x258>
    2592:	4e81                	li	t4,0
    2594:	0ff00693          	li	a3,255
    2598:	004007b7          	lui	a5,0x400
    259c:	bf11                	j	24b0 <__subsf3+0xfc>
    259e:	c939                	beqz	a0,25f4 <__subsf3+0x240>
    25a0:	18fd                	addi	a7,a7,-1
    25a2:	00af07b3          	add	a5,t5,a0
    25a6:	fa0883e3          	beqz	a7,254c <__subsf3+0x198>
    25aa:	0ff00793          	li	a5,255
    25ae:	f8f690e3          	bne	a3,a5,252e <__subsf3+0x17a>
    25b2:	bff1                	j	258e <__subsf3+0x1da>
    25b4:	08089963          	bnez	a7,2646 <__subsf3+0x292>
    25b8:	00168913          	addi	s2,a3,1 # 7e000001 <_eusrstack+0x5dffb001>
    25bc:	0fe97713          	andi	a4,s2,254
    25c0:	12071663          	bnez	a4,26ec <__subsf3+0x338>
    25c4:	10069b63          	bnez	a3,26da <__subsf3+0x326>
    25c8:	160f0363          	beqz	t5,272e <__subsf3+0x37a>
    25cc:	ee0502e3          	beqz	a0,24b0 <__subsf3+0xfc>
    25d0:	00af07b3          	add	a5,t5,a0
    25d4:	00579713          	slli	a4,a5,0x5
    25d8:	4901                	li	s2,0
    25da:	00075763          	bgez	a4,25e8 <__subsf3+0x234>
    25de:	fc000737          	lui	a4,0xfc000
    25e2:	177d                	addi	a4,a4,-1
    25e4:	8ff9                	and	a5,a5,a4
    25e6:	4905                	li	s2,1
    25e8:	0077f713          	andi	a4,a5,7
    25ec:	e8071ce3          	bnez	a4,2484 <__subsf3+0xd0>
    25f0:	0037de13          	srli	t3,a5,0x3
    25f4:	0ff00793          	li	a5,255
    25f8:	f8f90be3          	beq	s2,a5,258e <__subsf3+0x1da>
    25fc:	009e1793          	slli	a5,t3,0x9
    2600:	83a5                	srli	a5,a5,0x9
    2602:	0ff97693          	andi	a3,s2,255
    2606:	0014fe93          	andi	t4,s1,1
    260a:	b55d                	j	24b0 <__subsf3+0xfc>
    260c:	0014fe93          	andi	t4,s1,1
    2610:	0ff00693          	li	a3,255
    2614:	4781                	li	a5,0
    2616:	bd69                	j	24b0 <__subsf3+0xfc>
    2618:	fc000737          	lui	a4,0xfc000
    261c:	177d                	addi	a4,a4,-1
    261e:	8ff9                	and	a5,a5,a4
    2620:	0077f713          	andi	a4,a5,7
    2624:	40a90933          	sub	s2,s2,a0
    2628:	e4071ee3          	bnez	a4,2484 <__subsf3+0xd0>
    262c:	b7d1                	j	25f0 <__subsf3+0x23c>
    262e:	40af0433          	sub	s0,t5,a0
    2632:	00541793          	slli	a5,s0,0x5
    2636:	0c07c363          	bltz	a5,26fc <__subsf3+0x348>
    263a:	e0041ce3          	bnez	s0,2452 <__subsf3+0x9e>
    263e:	4e81                	li	t4,0
    2640:	4681                	li	a3,0
    2642:	4781                	li	a5,0
    2644:	b5b5                	j	24b0 <__subsf3+0xfc>
    2646:	40d80733          	sub	a4,a6,a3
    264a:	c6b5                	beqz	a3,26b6 <__subsf3+0x302>
    264c:	0ff00793          	li	a5,255
    2650:	f2f80ee3          	beq	a6,a5,258c <__subsf3+0x1d8>
    2654:	040007b7          	lui	a5,0x4000
    2658:	00ff6f33          	or	t5,t5,a5
    265c:	47ed                	li	a5,27
    265e:	0ce7cd63          	blt	a5,a4,2738 <__subsf3+0x384>
    2662:	02000793          	li	a5,32
    2666:	8f99                	sub	a5,a5,a4
    2668:	00ff17b3          	sll	a5,t5,a5
    266c:	00ef5733          	srl	a4,t5,a4
    2670:	00f037b3          	snez	a5,a5
    2674:	8f5d                	or	a4,a4,a5
    2676:	00a707b3          	add	a5,a4,a0
    267a:	8942                	mv	s2,a6
    267c:	bdc1                	j	254c <__subsf3+0x198>
    267e:	0ff00793          	li	a5,255
    2682:	f0f804e3          	beq	a6,a5,258a <__subsf3+0x1d6>
    2686:	040007b7          	lui	a5,0x4000
    268a:	00ff6f33          	or	t5,t5,a5
    268e:	47ed                	li	a5,27
    2690:	08e7c263          	blt	a5,a4,2714 <__subsf3+0x360>
    2694:	02000793          	li	a5,32
    2698:	8f99                	sub	a5,a5,a4
    269a:	00ff17b3          	sll	a5,t5,a5
    269e:	00ef5733          	srl	a4,t5,a4
    26a2:	00f037b3          	snez	a5,a5
    26a6:	8fd9                	or	a5,a5,a4
    26a8:	40f507b3          	sub	a5,a0,a5
    26ac:	8942                	mv	s2,a6
    26ae:	84ae                	mv	s1,a1
    26b0:	bb49                	j	2442 <__subsf3+0x8e>
    26b2:	4785                	li	a5,1
    26b4:	b369                	j	243e <__subsf3+0x8a>
    26b6:	060f0e63          	beqz	t5,2732 <__subsf3+0x37e>
    26ba:	177d                	addi	a4,a4,-1
    26bc:	00af07b3          	add	a5,t5,a0
    26c0:	8942                	mv	s2,a6
    26c2:	e80705e3          	beqz	a4,254c <__subsf3+0x198>
    26c6:	0ff00793          	li	a5,255
    26ca:	f8f819e3          	bne	a6,a5,265c <__subsf3+0x2a8>
    26ce:	8e32                	mv	t3,a2
    26d0:	bd7d                	j	258e <__subsf3+0x1da>
    26d2:	8e32                	mv	t3,a2
    26d4:	8942                	mv	s2,a6
    26d6:	84ae                	mv	s1,a1
    26d8:	bf31                	j	25f4 <__subsf3+0x240>
    26da:	ea0f09e3          	beqz	t5,258c <__subsf3+0x1d8>
    26de:	ea0508e3          	beqz	a0,258e <__subsf3+0x1da>
    26e2:	bd45                	j	2592 <__subsf3+0x1de>
    26e4:	cd0d                	beqz	a0,271e <__subsf3+0x36a>
    26e6:	8eae                	mv	t4,a1
    26e8:	87b2                	mv	a5,a2
    26ea:	b3d9                	j	24b0 <__subsf3+0xfc>
    26ec:	0ff00793          	li	a5,255
    26f0:	f2f900e3          	beq	s2,a5,2610 <__subsf3+0x25c>
    26f4:	00af07b3          	add	a5,t5,a0
    26f8:	8385                	srli	a5,a5,0x1
    26fa:	b5fd                	j	25e8 <__subsf3+0x234>
    26fc:	41e50433          	sub	s0,a0,t5
    2700:	84ae                	mv	s1,a1
    2702:	bb81                	j	2452 <__subsf3+0x9e>
    2704:	fc0f1de3          	bnez	t5,26de <__subsf3+0x32a>
    2708:	e80505e3          	beqz	a0,2592 <__subsf3+0x1de>
    270c:	84ae                	mv	s1,a1
    270e:	bdbd                	j	258c <__subsf3+0x1d8>
    2710:	4785                	li	a5,1
    2712:	bd25                	j	254a <__subsf3+0x196>
    2714:	4785                	li	a5,1
    2716:	bf49                	j	26a8 <__subsf3+0x2f4>
    2718:	4901                	li	s2,0
    271a:	ec0797e3          	bnez	a5,25e8 <__subsf3+0x234>
    271e:	4e81                	li	t4,0
    2720:	4781                	li	a5,0
    2722:	b379                	j	24b0 <__subsf3+0xfc>
    2724:	41e507b3          	sub	a5,a0,t5
    2728:	8942                	mv	s2,a6
    272a:	84ae                	mv	s1,a1
    272c:	bb19                	j	2442 <__subsf3+0x8e>
    272e:	87b2                	mv	a5,a2
    2730:	b341                	j	24b0 <__subsf3+0xfc>
    2732:	8e32                	mv	t3,a2
    2734:	8942                	mv	s2,a6
    2736:	bd7d                	j	25f4 <__subsf3+0x240>
    2738:	4705                	li	a4,1
    273a:	bf35                	j	2676 <__subsf3+0x2c2>

0000273c <__fixunssfsi>:
    273c:	01755713          	srli	a4,a0,0x17
    2740:	00800637          	lui	a2,0x800
    2744:	fff60793          	addi	a5,a2,-1 # 7fffff <_data_lma+0x7fc18b>
    2748:	0ff77713          	andi	a4,a4,255
    274c:	07e00593          	li	a1,126
    2750:	00a7f6b3          	and	a3,a5,a0
    2754:	01f55793          	srli	a5,a0,0x1f
    2758:	4501                	li	a0,0
    275a:	00e5f463          	bgeu	a1,a4,2762 <__fixunssfsi+0x26>
    275e:	c399                	beqz	a5,2764 <__fixunssfsi+0x28>
    2760:	8082                	ret
    2762:	8082                	ret
    2764:	09e00793          	li	a5,158
    2768:	557d                	li	a0,-1
    276a:	fee7ebe3          	bltu	a5,a4,2760 <__fixunssfsi+0x24>
    276e:	09500593          	li	a1,149
    2772:	00c6e7b3          	or	a5,a3,a2
    2776:	00e5d763          	bge	a1,a4,2784 <__fixunssfsi+0x48>
    277a:	f6a70713          	addi	a4,a4,-150 # fbffff6a <_eusrstack+0xdbffaf6a>
    277e:	00e79533          	sll	a0,a5,a4
    2782:	8082                	ret
    2784:	09600513          	li	a0,150
    2788:	40e50733          	sub	a4,a0,a4
    278c:	00e7d533          	srl	a0,a5,a4
    2790:	8082                	ret

00002792 <__floatsisf>:
    2792:	1141                	addi	sp,sp,-16
    2794:	c606                	sw	ra,12(sp)
    2796:	c422                	sw	s0,8(sp)
    2798:	c226                	sw	s1,4(sp)
    279a:	cd0d                	beqz	a0,27d4 <__floatsisf+0x42>
    279c:	41f55793          	srai	a5,a0,0x1f
    27a0:	00a7c433          	xor	s0,a5,a0
    27a4:	8c1d                	sub	s0,s0,a5
    27a6:	84aa                	mv	s1,a0
    27a8:	8522                	mv	a0,s0
    27aa:	24d1                	jal	2a6e <__clzsi2>
    27ac:	09e00793          	li	a5,158
    27b0:	40a78733          	sub	a4,a5,a0
    27b4:	09600793          	li	a5,150
    27b8:	80fd                	srli	s1,s1,0x1f
    27ba:	02e7cc63          	blt	a5,a4,27f2 <__floatsisf+0x60>
    27be:	46a1                	li	a3,8
    27c0:	0ff77793          	andi	a5,a4,255
    27c4:	00a6d563          	bge	a3,a0,27ce <__floatsisf+0x3c>
    27c8:	1561                	addi	a0,a0,-8
    27ca:	00a41433          	sll	s0,s0,a0
    27ce:	0426                	slli	s0,s0,0x9
    27d0:	8025                	srli	s0,s0,0x9
    27d2:	a021                	j	27da <__floatsisf+0x48>
    27d4:	4481                	li	s1,0
    27d6:	4781                	li	a5,0
    27d8:	4401                	li	s0,0
    27da:	0426                	slli	s0,s0,0x9
    27dc:	00945513          	srli	a0,s0,0x9
    27e0:	40b2                	lw	ra,12(sp)
    27e2:	4422                	lw	s0,8(sp)
    27e4:	07de                	slli	a5,a5,0x17
    27e6:	04fe                	slli	s1,s1,0x1f
    27e8:	8d5d                	or	a0,a0,a5
    27ea:	8d45                	or	a0,a0,s1
    27ec:	4492                	lw	s1,4(sp)
    27ee:	0141                	addi	sp,sp,16
    27f0:	8082                	ret
    27f2:	09900793          	li	a5,153
    27f6:	00e7dd63          	bge	a5,a4,2810 <__floatsisf+0x7e>
    27fa:	01b50793          	addi	a5,a0,27
    27fe:	4695                	li	a3,5
    2800:	00f417b3          	sll	a5,s0,a5
    2804:	8e89                	sub	a3,a3,a0
    2806:	00d45433          	srl	s0,s0,a3
    280a:	00f037b3          	snez	a5,a5
    280e:	8c5d                	or	s0,s0,a5
    2810:	4795                	li	a5,5
    2812:	00a7d663          	bge	a5,a0,281e <__floatsisf+0x8c>
    2816:	ffb50793          	addi	a5,a0,-5
    281a:	00f41433          	sll	s0,s0,a5
    281e:	fc0006b7          	lui	a3,0xfc000
    2822:	16fd                	addi	a3,a3,-1
    2824:	00747793          	andi	a5,s0,7
    2828:	00d47633          	and	a2,s0,a3
    282c:	c385                	beqz	a5,284c <__floatsisf+0xba>
    282e:	00f47793          	andi	a5,s0,15
    2832:	4591                	li	a1,4
    2834:	00b78c63          	beq	a5,a1,284c <__floatsisf+0xba>
    2838:	0611                	addi	a2,a2,4
    283a:	00561793          	slli	a5,a2,0x5
    283e:	0007d763          	bgez	a5,284c <__floatsisf+0xba>
    2842:	09f00793          	li	a5,159
    2846:	8e75                	and	a2,a2,a3
    2848:	40a78733          	sub	a4,a5,a0
    284c:	00661413          	slli	s0,a2,0x6
    2850:	8025                	srli	s0,s0,0x9
    2852:	0ff77793          	andi	a5,a4,255
    2856:	b751                	j	27da <__floatsisf+0x48>

00002858 <__extendsfdf2>:
    2858:	01755713          	srli	a4,a0,0x17
    285c:	0ff77713          	andi	a4,a4,255
    2860:	1141                	addi	sp,sp,-16
    2862:	00170793          	addi	a5,a4,1
    2866:	c422                	sw	s0,8(sp)
    2868:	c226                	sw	s1,4(sp)
    286a:	00951413          	slli	s0,a0,0x9
    286e:	c606                	sw	ra,12(sp)
    2870:	0fe7f793          	andi	a5,a5,254
    2874:	8025                	srli	s0,s0,0x9
    2876:	01f55493          	srli	s1,a0,0x1f
    287a:	c785                	beqz	a5,28a2 <__extendsfdf2+0x4a>
    287c:	00345793          	srli	a5,s0,0x3
    2880:	38070713          	addi	a4,a4,896
    2884:	0476                	slli	s0,s0,0x1d
    2886:	07b2                	slli	a5,a5,0xc
    2888:	0752                	slli	a4,a4,0x14
    288a:	83b1                	srli	a5,a5,0xc
    288c:	01f49513          	slli	a0,s1,0x1f
    2890:	8fd9                	or	a5,a5,a4
    2892:	8fc9                	or	a5,a5,a0
    2894:	40b2                	lw	ra,12(sp)
    2896:	8522                	mv	a0,s0
    2898:	4422                	lw	s0,8(sp)
    289a:	4492                	lw	s1,4(sp)
    289c:	85be                	mv	a1,a5
    289e:	0141                	addi	sp,sp,16
    28a0:	8082                	ret
    28a2:	eb05                	bnez	a4,28d2 <__extendsfdf2+0x7a>
    28a4:	c439                	beqz	s0,28f2 <__extendsfdf2+0x9a>
    28a6:	8522                	mv	a0,s0
    28a8:	22d9                	jal	2a6e <__clzsi2>
    28aa:	47a9                	li	a5,10
    28ac:	04a7c663          	blt	a5,a0,28f8 <__extendsfdf2+0xa0>
    28b0:	472d                	li	a4,11
    28b2:	8f09                	sub	a4,a4,a0
    28b4:	01550793          	addi	a5,a0,21
    28b8:	00e45733          	srl	a4,s0,a4
    28bc:	00f41433          	sll	s0,s0,a5
    28c0:	00c71793          	slli	a5,a4,0xc
    28c4:	38900713          	li	a4,905
    28c8:	8f09                	sub	a4,a4,a0
    28ca:	83b1                	srli	a5,a5,0xc
    28cc:	7ff77713          	andi	a4,a4,2047
    28d0:	bf5d                	j	2886 <__extendsfdf2+0x2e>
    28d2:	cc01                	beqz	s0,28ea <__extendsfdf2+0x92>
    28d4:	00345713          	srli	a4,s0,0x3
    28d8:	000807b7          	lui	a5,0x80
    28dc:	8fd9                	or	a5,a5,a4
    28de:	07b2                	slli	a5,a5,0xc
    28e0:	0476                	slli	s0,s0,0x1d
    28e2:	83b1                	srli	a5,a5,0xc
    28e4:	7ff00713          	li	a4,2047
    28e8:	bf79                	j	2886 <__extendsfdf2+0x2e>
    28ea:	7ff00713          	li	a4,2047
    28ee:	4781                	li	a5,0
    28f0:	bf59                	j	2886 <__extendsfdf2+0x2e>
    28f2:	4701                	li	a4,0
    28f4:	4781                	li	a5,0
    28f6:	bf41                	j	2886 <__extendsfdf2+0x2e>
    28f8:	ff550713          	addi	a4,a0,-11
    28fc:	00e41733          	sll	a4,s0,a4
    2900:	4401                	li	s0,0
    2902:	bf7d                	j	28c0 <__extendsfdf2+0x68>

00002904 <__truncdfsf2>:
    2904:	0145d693          	srli	a3,a1,0x14
    2908:	00c59793          	slli	a5,a1,0xc
    290c:	7ff6f693          	andi	a3,a3,2047
    2910:	83b1                	srli	a5,a5,0xc
    2912:	00168613          	addi	a2,a3,1 # fc000001 <_eusrstack+0xdbffb001>
    2916:	078e                	slli	a5,a5,0x3
    2918:	01d55713          	srli	a4,a0,0x1d
    291c:	7fe67613          	andi	a2,a2,2046
    2920:	81fd                	srli	a1,a1,0x1f
    2922:	8f5d                	or	a4,a4,a5
    2924:	00351893          	slli	a7,a0,0x3
    2928:	ce35                	beqz	a2,29a4 <__truncdfsf2+0xa0>
    292a:	c8068813          	addi	a6,a3,-896
    292e:	0fe00793          	li	a5,254
    2932:	0107dd63          	bge	a5,a6,294c <__truncdfsf2+0x48>
    2936:	4781                	li	a5,0
    2938:	00979513          	slli	a0,a5,0x9
    293c:	0ff00693          	li	a3,255
    2940:	06de                	slli	a3,a3,0x17
    2942:	8125                	srli	a0,a0,0x9
    2944:	05fe                	slli	a1,a1,0x1f
    2946:	8d55                	or	a0,a0,a3
    2948:	8d4d                	or	a0,a0,a1
    294a:	8082                	ret
    294c:	0b005563          	blez	a6,29f6 <__truncdfsf2+0xf2>
    2950:	00651793          	slli	a5,a0,0x6
    2954:	070e                	slli	a4,a4,0x3
    2956:	00f037b3          	snez	a5,a5
    295a:	8fd9                	or	a5,a5,a4
    295c:	01d8d893          	srli	a7,a7,0x1d
    2960:	0117e7b3          	or	a5,a5,a7
    2964:	0077f713          	andi	a4,a5,7
    2968:	10070163          	beqz	a4,2a6a <__truncdfsf2+0x166>
    296c:	00f7f713          	andi	a4,a5,15
    2970:	4691                	li	a3,4
    2972:	00d70363          	beq	a4,a3,2978 <__truncdfsf2+0x74>
    2976:	0791                	addi	a5,a5,4
    2978:	04000737          	lui	a4,0x4000
    297c:	8f7d                	and	a4,a4,a5
    297e:	c775                	beqz	a4,2a6a <__truncdfsf2+0x166>
    2980:	00180713          	addi	a4,a6,1
    2984:	0ff00613          	li	a2,255
    2988:	0ff77693          	andi	a3,a4,255
    298c:	fac705e3          	beq	a4,a2,2936 <__truncdfsf2+0x32>
    2990:	079a                	slli	a5,a5,0x6
    2992:	83a5                	srli	a5,a5,0x9
    2994:	00979513          	slli	a0,a5,0x9
    2998:	06de                	slli	a3,a3,0x17
    299a:	8125                	srli	a0,a0,0x9
    299c:	05fe                	slli	a1,a1,0x1f
    299e:	8d55                	or	a0,a0,a3
    29a0:	8d4d                	or	a0,a0,a1
    29a2:	8082                	ret
    29a4:	011767b3          	or	a5,a4,a7
    29a8:	ee99                	bnez	a3,29c6 <__truncdfsf2+0xc2>
    29aa:	cf85                	beqz	a5,29e2 <__truncdfsf2+0xde>
    29ac:	4795                	li	a5,5
    29ae:	079a                	slli	a5,a5,0x6
    29b0:	83a5                	srli	a5,a5,0x9
    29b2:	00979513          	slli	a0,a5,0x9
    29b6:	0ff6f693          	andi	a3,a3,255
    29ba:	06de                	slli	a3,a3,0x17
    29bc:	8125                	srli	a0,a0,0x9
    29be:	05fe                	slli	a1,a1,0x1f
    29c0:	8d55                	or	a0,a0,a3
    29c2:	8d4d                	or	a0,a0,a1
    29c4:	8082                	ret
    29c6:	dba5                	beqz	a5,2936 <__truncdfsf2+0x32>
    29c8:	004007b7          	lui	a5,0x400
    29cc:	00979513          	slli	a0,a5,0x9
    29d0:	0ff00693          	li	a3,255
    29d4:	06de                	slli	a3,a3,0x17
    29d6:	4581                	li	a1,0
    29d8:	8125                	srli	a0,a0,0x9
    29da:	05fe                	slli	a1,a1,0x1f
    29dc:	8d55                	or	a0,a0,a3
    29de:	8d4d                	or	a0,a0,a1
    29e0:	8082                	ret
    29e2:	4781                	li	a5,0
    29e4:	00979513          	slli	a0,a5,0x9
    29e8:	4681                	li	a3,0
    29ea:	06de                	slli	a3,a3,0x17
    29ec:	8125                	srli	a0,a0,0x9
    29ee:	05fe                	slli	a1,a1,0x1f
    29f0:	8d55                	or	a0,a0,a3
    29f2:	8d4d                	or	a0,a0,a1
    29f4:	8082                	ret
    29f6:	57a5                	li	a5,-23
    29f8:	04f84863          	blt	a6,a5,2a48 <__truncdfsf2+0x144>
    29fc:	47f9                	li	a5,30
    29fe:	00800637          	lui	a2,0x800
    2a02:	410787b3          	sub	a5,a5,a6
    2a06:	457d                	li	a0,31
    2a08:	8e59                	or	a2,a2,a4
    2a0a:	04f55163          	bge	a0,a5,2a4c <__truncdfsf2+0x148>
    2a0e:	5779                	li	a4,-2
    2a10:	41070733          	sub	a4,a4,a6
    2a14:	02000513          	li	a0,32
    2a18:	00e65733          	srl	a4,a2,a4
    2a1c:	00a78863          	beq	a5,a0,2a2c <__truncdfsf2+0x128>
    2a20:	ca268693          	addi	a3,a3,-862
    2a24:	00d616b3          	sll	a3,a2,a3
    2a28:	00d8e8b3          	or	a7,a7,a3
    2a2c:	011037b3          	snez	a5,a7
    2a30:	8fd9                	or	a5,a5,a4
    2a32:	0077f713          	andi	a4,a5,7
    2a36:	4801                	li	a6,0
    2a38:	fb15                	bnez	a4,296c <__truncdfsf2+0x68>
    2a3a:	00579713          	slli	a4,a5,0x5
    2a3e:	4685                	li	a3,1
    2a40:	f40748e3          	bltz	a4,2990 <__truncdfsf2+0x8c>
    2a44:	4681                	li	a3,0
    2a46:	b7a5                	j	29ae <__truncdfsf2+0xaa>
    2a48:	4681                	li	a3,0
    2a4a:	b78d                	j	29ac <__truncdfsf2+0xa8>
    2a4c:	c8268693          	addi	a3,a3,-894
    2a50:	00d89733          	sll	a4,a7,a3
    2a54:	00e03733          	snez	a4,a4
    2a58:	00d616b3          	sll	a3,a2,a3
    2a5c:	00f8d8b3          	srl	a7,a7,a5
    2a60:	00d767b3          	or	a5,a4,a3
    2a64:	00f8e7b3          	or	a5,a7,a5
    2a68:	b7e9                	j	2a32 <__truncdfsf2+0x12e>
    2a6a:	86c2                	mv	a3,a6
    2a6c:	b789                	j	29ae <__truncdfsf2+0xaa>

00002a6e <__clzsi2>:
    2a6e:	67c1                	lui	a5,0x10
    2a70:	02f57c63          	bgeu	a0,a5,2aa8 <__clzsi2+0x3a>
    2a74:	0ff00793          	li	a5,255
    2a78:	02000713          	li	a4,32
    2a7c:	00a7eb63          	bltu	a5,a0,2a92 <__clzsi2+0x24>
    2a80:	00001797          	auipc	a5,0x1
    2a84:	25878793          	addi	a5,a5,600 # 3cd8 <__clz_tab>
    2a88:	97aa                	add	a5,a5,a0
    2a8a:	2388                	lbu	a0,0(a5)
    2a8c:	40a70533          	sub	a0,a4,a0
    2a90:	8082                	ret
    2a92:	8121                	srli	a0,a0,0x8
    2a94:	00001797          	auipc	a5,0x1
    2a98:	24478793          	addi	a5,a5,580 # 3cd8 <__clz_tab>
    2a9c:	97aa                	add	a5,a5,a0
    2a9e:	2388                	lbu	a0,0(a5)
    2aa0:	4761                	li	a4,24
    2aa2:	40a70533          	sub	a0,a4,a0
    2aa6:	8082                	ret
    2aa8:	010007b7          	lui	a5,0x1000
    2aac:	00f56d63          	bltu	a0,a5,2ac6 <__clzsi2+0x58>
    2ab0:	8161                	srli	a0,a0,0x18
    2ab2:	00001797          	auipc	a5,0x1
    2ab6:	22678793          	addi	a5,a5,550 # 3cd8 <__clz_tab>
    2aba:	97aa                	add	a5,a5,a0
    2abc:	2388                	lbu	a0,0(a5)
    2abe:	4721                	li	a4,8
    2ac0:	40a70533          	sub	a0,a4,a0
    2ac4:	8082                	ret
    2ac6:	8141                	srli	a0,a0,0x10
    2ac8:	00001797          	auipc	a5,0x1
    2acc:	21078793          	addi	a5,a5,528 # 3cd8 <__clz_tab>
    2ad0:	97aa                	add	a5,a5,a0
    2ad2:	2388                	lbu	a0,0(a5)
    2ad4:	4741                	li	a4,16
    2ad6:	40a70533          	sub	a0,a4,a0
    2ada:	8082                	ret

00002adc <iprintf>:
    2adc:	7139                	addi	sp,sp,-64
    2ade:	da3e                	sw	a5,52(sp)
    2ae0:	d22e                	sw	a1,36(sp)
    2ae2:	d432                	sw	a2,40(sp)
    2ae4:	d636                	sw	a3,44(sp)
    2ae6:	d83a                	sw	a4,48(sp)
    2ae8:	dc42                	sw	a6,56(sp)
    2aea:	de46                	sw	a7,60(sp)
    2aec:	80c18793          	addi	a5,gp,-2036 # 2000008c <_impure_ptr>
    2af0:	cc22                	sw	s0,24(sp)
    2af2:	4380                	lw	s0,0(a5)
    2af4:	ca26                	sw	s1,20(sp)
    2af6:	ce06                	sw	ra,28(sp)
    2af8:	84aa                	mv	s1,a0
    2afa:	c409                	beqz	s0,2b04 <iprintf+0x28>
    2afc:	4c1c                	lw	a5,24(s0)
    2afe:	e399                	bnez	a5,2b04 <iprintf+0x28>
    2b00:	8522                	mv	a0,s0
    2b02:	20f9                	jal	2bd0 <__sinit>
    2b04:	440c                	lw	a1,8(s0)
    2b06:	1054                	addi	a3,sp,36
    2b08:	8626                	mv	a2,s1
    2b0a:	8522                	mv	a0,s0
    2b0c:	c636                	sw	a3,12(sp)
    2b0e:	2901                	jal	2f1e <_vfiprintf_r>
    2b10:	40f2                	lw	ra,28(sp)
    2b12:	4462                	lw	s0,24(sp)
    2b14:	44d2                	lw	s1,20(sp)
    2b16:	6121                	addi	sp,sp,64
    2b18:	8082                	ret

00002b1a <std>:
    2b1a:	1141                	addi	sp,sp,-16
    2b1c:	c422                	sw	s0,8(sp)
    2b1e:	c606                	sw	ra,12(sp)
    2b20:	842a                	mv	s0,a0
    2b22:	a54e                	sh	a1,12(a0)
    2b24:	a572                	sh	a2,14(a0)
    2b26:	00052023          	sw	zero,0(a0)
    2b2a:	00052223          	sw	zero,4(a0)
    2b2e:	00052423          	sw	zero,8(a0)
    2b32:	06052223          	sw	zero,100(a0)
    2b36:	00052823          	sw	zero,16(a0)
    2b3a:	00052a23          	sw	zero,20(a0)
    2b3e:	00052c23          	sw	zero,24(a0)
    2b42:	4621                	li	a2,8
    2b44:	4581                	li	a1,0
    2b46:	05c50513          	addi	a0,a0,92
    2b4a:	e16fd0ef          	jal	ra,160 <memset>
    2b4e:	00001797          	auipc	a5,0x1
    2b52:	a3078793          	addi	a5,a5,-1488 # 357e <__sread>
    2b56:	d05c                	sw	a5,36(s0)
    2b58:	00001797          	auipc	a5,0x1
    2b5c:	a5278793          	addi	a5,a5,-1454 # 35aa <__swrite>
    2b60:	d41c                	sw	a5,40(s0)
    2b62:	00001797          	auipc	a5,0x1
    2b66:	a9078793          	addi	a5,a5,-1392 # 35f2 <__sseek>
    2b6a:	d45c                	sw	a5,44(s0)
    2b6c:	00001797          	auipc	a5,0x1
    2b70:	ab678793          	addi	a5,a5,-1354 # 3622 <__sclose>
    2b74:	d000                	sw	s0,32(s0)
    2b76:	d81c                	sw	a5,48(s0)
    2b78:	40b2                	lw	ra,12(sp)
    2b7a:	4422                	lw	s0,8(sp)
    2b7c:	0141                	addi	sp,sp,16
    2b7e:	8082                	ret

00002b80 <_cleanup_r>:
    2b80:	00001597          	auipc	a1,0x1
    2b84:	dee58593          	addi	a1,a1,-530 # 396e <_fflush_r>
    2b88:	a2a9                	j	2cd2 <_fwalk_reent>

00002b8a <__sfmoreglue>:
    2b8a:	1141                	addi	sp,sp,-16
    2b8c:	c226                	sw	s1,4(sp)
    2b8e:	06800613          	li	a2,104
    2b92:	fff58493          	addi	s1,a1,-1
    2b96:	02c484b3          	mul	s1,s1,a2
    2b9a:	c04a                	sw	s2,0(sp)
    2b9c:	892e                	mv	s2,a1
    2b9e:	c422                	sw	s0,8(sp)
    2ba0:	c606                	sw	ra,12(sp)
    2ba2:	07448593          	addi	a1,s1,116
    2ba6:	2c3d                	jal	2de4 <_malloc_r>
    2ba8:	842a                	mv	s0,a0
    2baa:	cd01                	beqz	a0,2bc2 <__sfmoreglue+0x38>
    2bac:	00052023          	sw	zero,0(a0)
    2bb0:	01252223          	sw	s2,4(a0)
    2bb4:	0531                	addi	a0,a0,12
    2bb6:	c408                	sw	a0,8(s0)
    2bb8:	06848613          	addi	a2,s1,104
    2bbc:	4581                	li	a1,0
    2bbe:	da2fd0ef          	jal	ra,160 <memset>
    2bc2:	8522                	mv	a0,s0
    2bc4:	40b2                	lw	ra,12(sp)
    2bc6:	4422                	lw	s0,8(sp)
    2bc8:	4492                	lw	s1,4(sp)
    2bca:	4902                	lw	s2,0(sp)
    2bcc:	0141                	addi	sp,sp,16
    2bce:	8082                	ret

00002bd0 <__sinit>:
    2bd0:	4d1c                	lw	a5,24(a0)
    2bd2:	e3ad                	bnez	a5,2c34 <__sinit+0x64>
    2bd4:	1141                	addi	sp,sp,-16
    2bd6:	c606                	sw	ra,12(sp)
    2bd8:	c422                	sw	s0,8(sp)
    2bda:	00000797          	auipc	a5,0x0
    2bde:	fa678793          	addi	a5,a5,-90 # 2b80 <_cleanup_r>
    2be2:	d51c                	sw	a5,40(a0)
    2be4:	81018793          	addi	a5,gp,-2032 # 20000090 <_global_impure_ptr>
    2be8:	439c                	lw	a5,0(a5)
    2bea:	04052423          	sw	zero,72(a0)
    2bee:	04052623          	sw	zero,76(a0)
    2bf2:	04052823          	sw	zero,80(a0)
    2bf6:	00f51463          	bne	a0,a5,2bfe <__sinit+0x2e>
    2bfa:	4785                	li	a5,1
    2bfc:	cd1c                	sw	a5,24(a0)
    2bfe:	842a                	mv	s0,a0
    2c00:	281d                	jal	2c36 <__sfp>
    2c02:	c048                	sw	a0,4(s0)
    2c04:	8522                	mv	a0,s0
    2c06:	2805                	jal	2c36 <__sfp>
    2c08:	c408                	sw	a0,8(s0)
    2c0a:	8522                	mv	a0,s0
    2c0c:	202d                	jal	2c36 <__sfp>
    2c0e:	c448                	sw	a0,12(s0)
    2c10:	4048                	lw	a0,4(s0)
    2c12:	4601                	li	a2,0
    2c14:	4591                	li	a1,4
    2c16:	3711                	jal	2b1a <std>
    2c18:	4408                	lw	a0,8(s0)
    2c1a:	4605                	li	a2,1
    2c1c:	45a5                	li	a1,9
    2c1e:	3df5                	jal	2b1a <std>
    2c20:	4448                	lw	a0,12(s0)
    2c22:	4609                	li	a2,2
    2c24:	45c9                	li	a1,18
    2c26:	3dd5                	jal	2b1a <std>
    2c28:	4785                	li	a5,1
    2c2a:	cc1c                	sw	a5,24(s0)
    2c2c:	40b2                	lw	ra,12(sp)
    2c2e:	4422                	lw	s0,8(sp)
    2c30:	0141                	addi	sp,sp,16
    2c32:	8082                	ret
    2c34:	8082                	ret

00002c36 <__sfp>:
    2c36:	1141                	addi	sp,sp,-16
    2c38:	81018793          	addi	a5,gp,-2032 # 20000090 <_global_impure_ptr>
    2c3c:	c226                	sw	s1,4(sp)
    2c3e:	4384                	lw	s1,0(a5)
    2c40:	c04a                	sw	s2,0(sp)
    2c42:	c606                	sw	ra,12(sp)
    2c44:	4c9c                	lw	a5,24(s1)
    2c46:	c422                	sw	s0,8(sp)
    2c48:	892a                	mv	s2,a0
    2c4a:	e399                	bnez	a5,2c50 <__sfp+0x1a>
    2c4c:	8526                	mv	a0,s1
    2c4e:	3749                	jal	2bd0 <__sinit>
    2c50:	04848493          	addi	s1,s1,72
    2c54:	4480                	lw	s0,8(s1)
    2c56:	40dc                	lw	a5,4(s1)
    2c58:	17fd                	addi	a5,a5,-1
    2c5a:	0007d663          	bgez	a5,2c66 <__sfp+0x30>
    2c5e:	409c                	lw	a5,0(s1)
    2c60:	cfb9                	beqz	a5,2cbe <__sfp+0x88>
    2c62:	4084                	lw	s1,0(s1)
    2c64:	bfc5                	j	2c54 <__sfp+0x1e>
    2c66:	00c41703          	lh	a4,12(s0) # 400000c <_data_lma+0x3ffc198>
    2c6a:	e739                	bnez	a4,2cb8 <__sfp+0x82>
    2c6c:	77c1                	lui	a5,0xffff0
    2c6e:	0785                	addi	a5,a5,1
    2c70:	06042223          	sw	zero,100(s0)
    2c74:	00042023          	sw	zero,0(s0)
    2c78:	00042223          	sw	zero,4(s0)
    2c7c:	00042423          	sw	zero,8(s0)
    2c80:	c45c                	sw	a5,12(s0)
    2c82:	00042823          	sw	zero,16(s0)
    2c86:	00042a23          	sw	zero,20(s0)
    2c8a:	00042c23          	sw	zero,24(s0)
    2c8e:	4621                	li	a2,8
    2c90:	4581                	li	a1,0
    2c92:	05c40513          	addi	a0,s0,92
    2c96:	ccafd0ef          	jal	ra,160 <memset>
    2c9a:	02042a23          	sw	zero,52(s0)
    2c9e:	02042c23          	sw	zero,56(s0)
    2ca2:	04042423          	sw	zero,72(s0)
    2ca6:	04042623          	sw	zero,76(s0)
    2caa:	8522                	mv	a0,s0
    2cac:	40b2                	lw	ra,12(sp)
    2cae:	4422                	lw	s0,8(sp)
    2cb0:	4492                	lw	s1,4(sp)
    2cb2:	4902                	lw	s2,0(sp)
    2cb4:	0141                	addi	sp,sp,16
    2cb6:	8082                	ret
    2cb8:	06840413          	addi	s0,s0,104
    2cbc:	bf71                	j	2c58 <__sfp+0x22>
    2cbe:	4591                	li	a1,4
    2cc0:	854a                	mv	a0,s2
    2cc2:	35e1                	jal	2b8a <__sfmoreglue>
    2cc4:	c088                	sw	a0,0(s1)
    2cc6:	fd51                	bnez	a0,2c62 <__sfp+0x2c>
    2cc8:	47b1                	li	a5,12
    2cca:	00f92023          	sw	a5,0(s2)
    2cce:	4401                	li	s0,0
    2cd0:	bfe9                	j	2caa <__sfp+0x74>

00002cd2 <_fwalk_reent>:
    2cd2:	7179                	addi	sp,sp,-48
    2cd4:	d422                	sw	s0,40(sp)
    2cd6:	d04a                	sw	s2,32(sp)
    2cd8:	cc52                	sw	s4,24(sp)
    2cda:	ca56                	sw	s5,20(sp)
    2cdc:	c85a                	sw	s6,16(sp)
    2cde:	c65e                	sw	s7,12(sp)
    2ce0:	d606                	sw	ra,44(sp)
    2ce2:	d226                	sw	s1,36(sp)
    2ce4:	ce4e                	sw	s3,28(sp)
    2ce6:	8a2a                	mv	s4,a0
    2ce8:	8aae                	mv	s5,a1
    2cea:	04850413          	addi	s0,a0,72
    2cee:	4901                	li	s2,0
    2cf0:	4b05                	li	s6,1
    2cf2:	5bfd                	li	s7,-1
    2cf4:	ec09                	bnez	s0,2d0e <_fwalk_reent+0x3c>
    2cf6:	50b2                	lw	ra,44(sp)
    2cf8:	5422                	lw	s0,40(sp)
    2cfa:	854a                	mv	a0,s2
    2cfc:	5492                	lw	s1,36(sp)
    2cfe:	5902                	lw	s2,32(sp)
    2d00:	49f2                	lw	s3,28(sp)
    2d02:	4a62                	lw	s4,24(sp)
    2d04:	4ad2                	lw	s5,20(sp)
    2d06:	4b42                	lw	s6,16(sp)
    2d08:	4bb2                	lw	s7,12(sp)
    2d0a:	6145                	addi	sp,sp,48
    2d0c:	8082                	ret
    2d0e:	4404                	lw	s1,8(s0)
    2d10:	00442983          	lw	s3,4(s0)
    2d14:	19fd                	addi	s3,s3,-1
    2d16:	0009d463          	bgez	s3,2d1e <_fwalk_reent+0x4c>
    2d1a:	4000                	lw	s0,0(s0)
    2d1c:	bfe1                	j	2cf4 <_fwalk_reent+0x22>
    2d1e:	24de                	lhu	a5,12(s1)
    2d20:	00fb7b63          	bgeu	s6,a5,2d36 <_fwalk_reent+0x64>
    2d24:	00e49783          	lh	a5,14(s1)
    2d28:	01778763          	beq	a5,s7,2d36 <_fwalk_reent+0x64>
    2d2c:	85a6                	mv	a1,s1
    2d2e:	8552                	mv	a0,s4
    2d30:	9a82                	jalr	s5
    2d32:	00a96933          	or	s2,s2,a0
    2d36:	06848493          	addi	s1,s1,104
    2d3a:	bfe9                	j	2d14 <_fwalk_reent+0x42>

00002d3c <_free_r>:
    2d3c:	c1dd                	beqz	a1,2de2 <_free_r+0xa6>
    2d3e:	ffc5a783          	lw	a5,-4(a1)
    2d42:	1141                	addi	sp,sp,-16
    2d44:	c422                	sw	s0,8(sp)
    2d46:	c606                	sw	ra,12(sp)
    2d48:	c226                	sw	s1,4(sp)
    2d4a:	ffc58413          	addi	s0,a1,-4
    2d4e:	0007d363          	bgez	a5,2d54 <_free_r+0x18>
    2d52:	943e                	add	s0,s0,a5
    2d54:	84aa                	mv	s1,a0
    2d56:	5a9000ef          	jal	ra,3afe <__malloc_lock>
    2d5a:	82818793          	addi	a5,gp,-2008 # 200000a8 <__malloc_free_list>
    2d5e:	439c                	lw	a5,0(a5)
    2d60:	ef81                	bnez	a5,2d78 <_free_r+0x3c>
    2d62:	00042223          	sw	zero,4(s0)
    2d66:	8281a423          	sw	s0,-2008(gp) # 200000a8 <__malloc_free_list>
    2d6a:	4422                	lw	s0,8(sp)
    2d6c:	40b2                	lw	ra,12(sp)
    2d6e:	8526                	mv	a0,s1
    2d70:	4492                	lw	s1,4(sp)
    2d72:	0141                	addi	sp,sp,16
    2d74:	58d0006f          	j	3b00 <__malloc_unlock>
    2d78:	00f47e63          	bgeu	s0,a5,2d94 <_free_r+0x58>
    2d7c:	4014                	lw	a3,0(s0)
    2d7e:	00d40733          	add	a4,s0,a3
    2d82:	00e79663          	bne	a5,a4,2d8e <_free_r+0x52>
    2d86:	4398                	lw	a4,0(a5)
    2d88:	43dc                	lw	a5,4(a5)
    2d8a:	9736                	add	a4,a4,a3
    2d8c:	c018                	sw	a4,0(s0)
    2d8e:	c05c                	sw	a5,4(s0)
    2d90:	bfd9                	j	2d66 <_free_r+0x2a>
    2d92:	87ba                	mv	a5,a4
    2d94:	43d8                	lw	a4,4(a5)
    2d96:	c319                	beqz	a4,2d9c <_free_r+0x60>
    2d98:	fee47de3          	bgeu	s0,a4,2d92 <_free_r+0x56>
    2d9c:	4394                	lw	a3,0(a5)
    2d9e:	00d78633          	add	a2,a5,a3
    2da2:	00861f63          	bne	a2,s0,2dc0 <_free_r+0x84>
    2da6:	4010                	lw	a2,0(s0)
    2da8:	96b2                	add	a3,a3,a2
    2daa:	c394                	sw	a3,0(a5)
    2dac:	00d78633          	add	a2,a5,a3
    2db0:	fac71de3          	bne	a4,a2,2d6a <_free_r+0x2e>
    2db4:	4310                	lw	a2,0(a4)
    2db6:	4358                	lw	a4,4(a4)
    2db8:	96b2                	add	a3,a3,a2
    2dba:	c394                	sw	a3,0(a5)
    2dbc:	c3d8                	sw	a4,4(a5)
    2dbe:	b775                	j	2d6a <_free_r+0x2e>
    2dc0:	00c47563          	bgeu	s0,a2,2dca <_free_r+0x8e>
    2dc4:	47b1                	li	a5,12
    2dc6:	c09c                	sw	a5,0(s1)
    2dc8:	b74d                	j	2d6a <_free_r+0x2e>
    2dca:	4010                	lw	a2,0(s0)
    2dcc:	00c406b3          	add	a3,s0,a2
    2dd0:	00d71663          	bne	a4,a3,2ddc <_free_r+0xa0>
    2dd4:	4314                	lw	a3,0(a4)
    2dd6:	4358                	lw	a4,4(a4)
    2dd8:	96b2                	add	a3,a3,a2
    2dda:	c014                	sw	a3,0(s0)
    2ddc:	c058                	sw	a4,4(s0)
    2dde:	c3c0                	sw	s0,4(a5)
    2de0:	b769                	j	2d6a <_free_r+0x2e>
    2de2:	8082                	ret

00002de4 <_malloc_r>:
    2de4:	1101                	addi	sp,sp,-32
    2de6:	ca26                	sw	s1,20(sp)
    2de8:	00358493          	addi	s1,a1,3
    2dec:	98f1                	andi	s1,s1,-4
    2dee:	ce06                	sw	ra,28(sp)
    2df0:	cc22                	sw	s0,24(sp)
    2df2:	c84a                	sw	s2,16(sp)
    2df4:	c64e                	sw	s3,12(sp)
    2df6:	04a1                	addi	s1,s1,8
    2df8:	47b1                	li	a5,12
    2dfa:	04f4f363          	bgeu	s1,a5,2e40 <_malloc_r+0x5c>
    2dfe:	44b1                	li	s1,12
    2e00:	04b4e263          	bltu	s1,a1,2e44 <_malloc_r+0x60>
    2e04:	892a                	mv	s2,a0
    2e06:	4f9000ef          	jal	ra,3afe <__malloc_lock>
    2e0a:	82818793          	addi	a5,gp,-2008 # 200000a8 <__malloc_free_list>
    2e0e:	4398                	lw	a4,0(a5)
    2e10:	843a                	mv	s0,a4
    2e12:	e039                	bnez	s0,2e58 <_malloc_r+0x74>
    2e14:	82c18793          	addi	a5,gp,-2004 # 200000ac <__malloc_sbrk_start>
    2e18:	439c                	lw	a5,0(a5)
    2e1a:	e791                	bnez	a5,2e26 <_malloc_r+0x42>
    2e1c:	4581                	li	a1,0
    2e1e:	854a                	mv	a0,s2
    2e20:	2f15                	jal	3554 <_sbrk_r>
    2e22:	82a1a623          	sw	a0,-2004(gp) # 200000ac <__malloc_sbrk_start>
    2e26:	85a6                	mv	a1,s1
    2e28:	854a                	mv	a0,s2
    2e2a:	272d                	jal	3554 <_sbrk_r>
    2e2c:	59fd                	li	s3,-1
    2e2e:	07351963          	bne	a0,s3,2ea0 <_malloc_r+0xbc>
    2e32:	47b1                	li	a5,12
    2e34:	00f92023          	sw	a5,0(s2)
    2e38:	854a                	mv	a0,s2
    2e3a:	4c7000ef          	jal	ra,3b00 <__malloc_unlock>
    2e3e:	a029                	j	2e48 <_malloc_r+0x64>
    2e40:	fc04d0e3          	bgez	s1,2e00 <_malloc_r+0x1c>
    2e44:	47b1                	li	a5,12
    2e46:	c11c                	sw	a5,0(a0)
    2e48:	4501                	li	a0,0
    2e4a:	40f2                	lw	ra,28(sp)
    2e4c:	4462                	lw	s0,24(sp)
    2e4e:	44d2                	lw	s1,20(sp)
    2e50:	4942                	lw	s2,16(sp)
    2e52:	49b2                	lw	s3,12(sp)
    2e54:	6105                	addi	sp,sp,32
    2e56:	8082                	ret
    2e58:	401c                	lw	a5,0(s0)
    2e5a:	8f85                	sub	a5,a5,s1
    2e5c:	0207cf63          	bltz	a5,2e9a <_malloc_r+0xb6>
    2e60:	46ad                	li	a3,11
    2e62:	00f6f663          	bgeu	a3,a5,2e6e <_malloc_r+0x8a>
    2e66:	c01c                	sw	a5,0(s0)
    2e68:	943e                	add	s0,s0,a5
    2e6a:	c004                	sw	s1,0(s0)
    2e6c:	a031                	j	2e78 <_malloc_r+0x94>
    2e6e:	405c                	lw	a5,4(s0)
    2e70:	02871363          	bne	a4,s0,2e96 <_malloc_r+0xb2>
    2e74:	82f1a423          	sw	a5,-2008(gp) # 200000a8 <__malloc_free_list>
    2e78:	854a                	mv	a0,s2
    2e7a:	487000ef          	jal	ra,3b00 <__malloc_unlock>
    2e7e:	00b40513          	addi	a0,s0,11
    2e82:	00440793          	addi	a5,s0,4
    2e86:	9961                	andi	a0,a0,-8
    2e88:	40f50733          	sub	a4,a0,a5
    2e8c:	df5d                	beqz	a4,2e4a <_malloc_r+0x66>
    2e8e:	943a                	add	s0,s0,a4
    2e90:	8f89                	sub	a5,a5,a0
    2e92:	c01c                	sw	a5,0(s0)
    2e94:	bf5d                	j	2e4a <_malloc_r+0x66>
    2e96:	c35c                	sw	a5,4(a4)
    2e98:	b7c5                	j	2e78 <_malloc_r+0x94>
    2e9a:	8722                	mv	a4,s0
    2e9c:	4040                	lw	s0,4(s0)
    2e9e:	bf95                	j	2e12 <_malloc_r+0x2e>
    2ea0:	00350413          	addi	s0,a0,3
    2ea4:	9871                	andi	s0,s0,-4
    2ea6:	fc8502e3          	beq	a0,s0,2e6a <_malloc_r+0x86>
    2eaa:	40a405b3          	sub	a1,s0,a0
    2eae:	854a                	mv	a0,s2
    2eb0:	2555                	jal	3554 <_sbrk_r>
    2eb2:	fb351ce3          	bne	a0,s3,2e6a <_malloc_r+0x86>
    2eb6:	bfb5                	j	2e32 <_malloc_r+0x4e>

00002eb8 <__sfputc_r>:
    2eb8:	461c                	lw	a5,8(a2)
    2eba:	17fd                	addi	a5,a5,-1
    2ebc:	c61c                	sw	a5,8(a2)
    2ebe:	0007d963          	bgez	a5,2ed0 <__sfputc_r+0x18>
    2ec2:	4e18                	lw	a4,24(a2)
    2ec4:	00e7c563          	blt	a5,a4,2ece <__sfputc_r+0x16>
    2ec8:	47a9                	li	a5,10
    2eca:	00f59363          	bne	a1,a5,2ed0 <__sfputc_r+0x18>
    2ece:	afa9                	j	3628 <__swbuf_r>
    2ed0:	421c                	lw	a5,0(a2)
    2ed2:	852e                	mv	a0,a1
    2ed4:	00178713          	addi	a4,a5,1 # ffff0001 <_eusrstack+0xdffeb001>
    2ed8:	c218                	sw	a4,0(a2)
    2eda:	a38c                	sb	a1,0(a5)
    2edc:	8082                	ret

00002ede <__sfputs_r>:
    2ede:	1101                	addi	sp,sp,-32
    2ee0:	cc22                	sw	s0,24(sp)
    2ee2:	ca26                	sw	s1,20(sp)
    2ee4:	c84a                	sw	s2,16(sp)
    2ee6:	c64e                	sw	s3,12(sp)
    2ee8:	c452                	sw	s4,8(sp)
    2eea:	ce06                	sw	ra,28(sp)
    2eec:	892a                	mv	s2,a0
    2eee:	89ae                	mv	s3,a1
    2ef0:	8432                	mv	s0,a2
    2ef2:	00d604b3          	add	s1,a2,a3
    2ef6:	5a7d                	li	s4,-1
    2ef8:	00941463          	bne	s0,s1,2f00 <__sfputs_r+0x22>
    2efc:	4501                	li	a0,0
    2efe:	a801                	j	2f0e <__sfputs_r+0x30>
    2f00:	200c                	lbu	a1,0(s0)
    2f02:	864e                	mv	a2,s3
    2f04:	854a                	mv	a0,s2
    2f06:	3f4d                	jal	2eb8 <__sfputc_r>
    2f08:	0405                	addi	s0,s0,1
    2f0a:	ff4517e3          	bne	a0,s4,2ef8 <__sfputs_r+0x1a>
    2f0e:	40f2                	lw	ra,28(sp)
    2f10:	4462                	lw	s0,24(sp)
    2f12:	44d2                	lw	s1,20(sp)
    2f14:	4942                	lw	s2,16(sp)
    2f16:	49b2                	lw	s3,12(sp)
    2f18:	4a22                	lw	s4,8(sp)
    2f1a:	6105                	addi	sp,sp,32
    2f1c:	8082                	ret

00002f1e <_vfiprintf_r>:
    2f1e:	7135                	addi	sp,sp,-160
    2f20:	cd22                	sw	s0,152(sp)
    2f22:	cb26                	sw	s1,148(sp)
    2f24:	c94a                	sw	s2,144(sp)
    2f26:	c74e                	sw	s3,140(sp)
    2f28:	cf06                	sw	ra,156(sp)
    2f2a:	c552                	sw	s4,136(sp)
    2f2c:	c356                	sw	s5,132(sp)
    2f2e:	c15a                	sw	s6,128(sp)
    2f30:	dede                	sw	s7,124(sp)
    2f32:	dce2                	sw	s8,120(sp)
    2f34:	dae6                	sw	s9,116(sp)
    2f36:	89aa                	mv	s3,a0
    2f38:	84ae                	mv	s1,a1
    2f3a:	8932                	mv	s2,a2
    2f3c:	8436                	mv	s0,a3
    2f3e:	c509                	beqz	a0,2f48 <_vfiprintf_r+0x2a>
    2f40:	4d1c                	lw	a5,24(a0)
    2f42:	e399                	bnez	a5,2f48 <_vfiprintf_r+0x2a>
    2f44:	c8dff0ef          	jal	ra,2bd0 <__sinit>
    2f48:	00001797          	auipc	a5,0x1
    2f4c:	eb078793          	addi	a5,a5,-336 # 3df8 <__sf_fake_stdin>
    2f50:	0cf49863          	bne	s1,a5,3020 <_vfiprintf_r+0x102>
    2f54:	0049a483          	lw	s1,4(s3)
    2f58:	24de                	lhu	a5,12(s1)
    2f5a:	8ba1                	andi	a5,a5,8
    2f5c:	c7e5                	beqz	a5,3044 <_vfiprintf_r+0x126>
    2f5e:	489c                	lw	a5,16(s1)
    2f60:	c3f5                	beqz	a5,3044 <_vfiprintf_r+0x126>
    2f62:	02000793          	li	a5,32
    2f66:	02f104a3          	sb	a5,41(sp)
    2f6a:	03000793          	li	a5,48
    2f6e:	d202                	sw	zero,36(sp)
    2f70:	02f10523          	sb	a5,42(sp)
    2f74:	c622                	sw	s0,12(sp)
    2f76:	02500b93          	li	s7,37
    2f7a:	00001a97          	auipc	s5,0x1
    2f7e:	ebea8a93          	addi	s5,s5,-322 # 3e38 <__sf_fake_stdout+0x20>
    2f82:	4c05                	li	s8,1
    2f84:	4b29                	li	s6,10
    2f86:	844a                	mv	s0,s2
    2f88:	201c                	lbu	a5,0(s0)
    2f8a:	c399                	beqz	a5,2f90 <_vfiprintf_r+0x72>
    2f8c:	0d779e63          	bne	a5,s7,3068 <_vfiprintf_r+0x14a>
    2f90:	41240cb3          	sub	s9,s0,s2
    2f94:	000c8d63          	beqz	s9,2fae <_vfiprintf_r+0x90>
    2f98:	86e6                	mv	a3,s9
    2f9a:	864a                	mv	a2,s2
    2f9c:	85a6                	mv	a1,s1
    2f9e:	854e                	mv	a0,s3
    2fa0:	3f3d                	jal	2ede <__sfputs_r>
    2fa2:	57fd                	li	a5,-1
    2fa4:	1ef50163          	beq	a0,a5,3186 <_vfiprintf_r+0x268>
    2fa8:	5692                	lw	a3,36(sp)
    2faa:	96e6                	add	a3,a3,s9
    2fac:	d236                	sw	a3,36(sp)
    2fae:	201c                	lbu	a5,0(s0)
    2fb0:	1c078b63          	beqz	a5,3186 <_vfiprintf_r+0x268>
    2fb4:	57fd                	li	a5,-1
    2fb6:	00140913          	addi	s2,s0,1
    2fba:	c802                	sw	zero,16(sp)
    2fbc:	ce02                	sw	zero,28(sp)
    2fbe:	ca3e                	sw	a5,20(sp)
    2fc0:	cc02                	sw	zero,24(sp)
    2fc2:	040109a3          	sb	zero,83(sp)
    2fc6:	d482                	sw	zero,104(sp)
    2fc8:	00094583          	lbu	a1,0(s2)
    2fcc:	4615                	li	a2,5
    2fce:	8556                	mv	a0,s5
    2fd0:	317000ef          	jal	ra,3ae6 <memchr>
    2fd4:	00190413          	addi	s0,s2,1
    2fd8:	47c2                	lw	a5,16(sp)
    2fda:	e949                	bnez	a0,306c <_vfiprintf_r+0x14e>
    2fdc:	0107f713          	andi	a4,a5,16
    2fe0:	c709                	beqz	a4,2fea <_vfiprintf_r+0xcc>
    2fe2:	02000713          	li	a4,32
    2fe6:	04e109a3          	sb	a4,83(sp)
    2fea:	0087f713          	andi	a4,a5,8
    2fee:	c709                	beqz	a4,2ff8 <_vfiprintf_r+0xda>
    2ff0:	02b00713          	li	a4,43
    2ff4:	04e109a3          	sb	a4,83(sp)
    2ff8:	00094683          	lbu	a3,0(s2)
    2ffc:	02a00713          	li	a4,42
    3000:	06e68e63          	beq	a3,a4,307c <_vfiprintf_r+0x15e>
    3004:	47f2                	lw	a5,28(sp)
    3006:	844a                	mv	s0,s2
    3008:	4681                	li	a3,0
    300a:	4625                	li	a2,9
    300c:	2018                	lbu	a4,0(s0)
    300e:	00140593          	addi	a1,s0,1
    3012:	fd070713          	addi	a4,a4,-48 # 3ffffd0 <_data_lma+0x3ffc15c>
    3016:	0ae67663          	bgeu	a2,a4,30c2 <_vfiprintf_r+0x1a4>
    301a:	caad                	beqz	a3,308c <_vfiprintf_r+0x16e>
    301c:	ce3e                	sw	a5,28(sp)
    301e:	a0bd                	j	308c <_vfiprintf_r+0x16e>
    3020:	00001797          	auipc	a5,0x1
    3024:	df878793          	addi	a5,a5,-520 # 3e18 <__sf_fake_stdout>
    3028:	00f49563          	bne	s1,a5,3032 <_vfiprintf_r+0x114>
    302c:	0089a483          	lw	s1,8(s3)
    3030:	b725                	j	2f58 <_vfiprintf_r+0x3a>
    3032:	00001797          	auipc	a5,0x1
    3036:	da678793          	addi	a5,a5,-602 # 3dd8 <__sf_fake_stderr>
    303a:	f0f49fe3          	bne	s1,a5,2f58 <_vfiprintf_r+0x3a>
    303e:	00c9a483          	lw	s1,12(s3)
    3042:	bf19                	j	2f58 <_vfiprintf_r+0x3a>
    3044:	85a6                	mv	a1,s1
    3046:	854e                	mv	a0,s3
    3048:	25f1                	jal	3714 <__swsetup_r>
    304a:	dd01                	beqz	a0,2f62 <_vfiprintf_r+0x44>
    304c:	557d                	li	a0,-1
    304e:	40fa                	lw	ra,156(sp)
    3050:	446a                	lw	s0,152(sp)
    3052:	44da                	lw	s1,148(sp)
    3054:	494a                	lw	s2,144(sp)
    3056:	49ba                	lw	s3,140(sp)
    3058:	4a2a                	lw	s4,136(sp)
    305a:	4a9a                	lw	s5,132(sp)
    305c:	4b0a                	lw	s6,128(sp)
    305e:	5bf6                	lw	s7,124(sp)
    3060:	5c66                	lw	s8,120(sp)
    3062:	5cd6                	lw	s9,116(sp)
    3064:	610d                	addi	sp,sp,160
    3066:	8082                	ret
    3068:	0405                	addi	s0,s0,1
    306a:	bf39                	j	2f88 <_vfiprintf_r+0x6a>
    306c:	41550533          	sub	a0,a0,s5
    3070:	00ac1533          	sll	a0,s8,a0
    3074:	8fc9                	or	a5,a5,a0
    3076:	c83e                	sw	a5,16(sp)
    3078:	8922                	mv	s2,s0
    307a:	b7b9                	j	2fc8 <_vfiprintf_r+0xaa>
    307c:	4732                	lw	a4,12(sp)
    307e:	00470693          	addi	a3,a4,4
    3082:	4318                	lw	a4,0(a4)
    3084:	c636                	sw	a3,12(sp)
    3086:	02074763          	bltz	a4,30b4 <_vfiprintf_r+0x196>
    308a:	ce3a                	sw	a4,28(sp)
    308c:	2018                	lbu	a4,0(s0)
    308e:	02e00793          	li	a5,46
    3092:	04f71d63          	bne	a4,a5,30ec <_vfiprintf_r+0x1ce>
    3096:	3018                	lbu	a4,1(s0)
    3098:	02a00793          	li	a5,42
    309c:	02f71b63          	bne	a4,a5,30d2 <_vfiprintf_r+0x1b4>
    30a0:	47b2                	lw	a5,12(sp)
    30a2:	0409                	addi	s0,s0,2
    30a4:	00478713          	addi	a4,a5,4
    30a8:	439c                	lw	a5,0(a5)
    30aa:	c63a                	sw	a4,12(sp)
    30ac:	0207c163          	bltz	a5,30ce <_vfiprintf_r+0x1b0>
    30b0:	ca3e                	sw	a5,20(sp)
    30b2:	a82d                	j	30ec <_vfiprintf_r+0x1ce>
    30b4:	40e00733          	neg	a4,a4
    30b8:	0027e793          	ori	a5,a5,2
    30bc:	ce3a                	sw	a4,28(sp)
    30be:	c83e                	sw	a5,16(sp)
    30c0:	b7f1                	j	308c <_vfiprintf_r+0x16e>
    30c2:	036787b3          	mul	a5,a5,s6
    30c6:	4685                	li	a3,1
    30c8:	842e                	mv	s0,a1
    30ca:	97ba                	add	a5,a5,a4
    30cc:	b781                	j	300c <_vfiprintf_r+0xee>
    30ce:	57fd                	li	a5,-1
    30d0:	b7c5                	j	30b0 <_vfiprintf_r+0x192>
    30d2:	0405                	addi	s0,s0,1
    30d4:	ca02                	sw	zero,20(sp)
    30d6:	4681                	li	a3,0
    30d8:	4781                	li	a5,0
    30da:	4625                	li	a2,9
    30dc:	2018                	lbu	a4,0(s0)
    30de:	00140593          	addi	a1,s0,1
    30e2:	fd070713          	addi	a4,a4,-48
    30e6:	06e67663          	bgeu	a2,a4,3152 <_vfiprintf_r+0x234>
    30ea:	f2f9                	bnez	a3,30b0 <_vfiprintf_r+0x192>
    30ec:	200c                	lbu	a1,0(s0)
    30ee:	460d                	li	a2,3
    30f0:	00001517          	auipc	a0,0x1
    30f4:	d5050513          	addi	a0,a0,-688 # 3e40 <__sf_fake_stdout+0x28>
    30f8:	1ef000ef          	jal	ra,3ae6 <memchr>
    30fc:	cd11                	beqz	a0,3118 <_vfiprintf_r+0x1fa>
    30fe:	00001797          	auipc	a5,0x1
    3102:	d4278793          	addi	a5,a5,-702 # 3e40 <__sf_fake_stdout+0x28>
    3106:	8d1d                	sub	a0,a0,a5
    3108:	04000793          	li	a5,64
    310c:	00a797b3          	sll	a5,a5,a0
    3110:	4542                	lw	a0,16(sp)
    3112:	0405                	addi	s0,s0,1
    3114:	8d5d                	or	a0,a0,a5
    3116:	c82a                	sw	a0,16(sp)
    3118:	200c                	lbu	a1,0(s0)
    311a:	4619                	li	a2,6
    311c:	00001517          	auipc	a0,0x1
    3120:	d2850513          	addi	a0,a0,-728 # 3e44 <__sf_fake_stdout+0x2c>
    3124:	00140913          	addi	s2,s0,1
    3128:	02b10423          	sb	a1,40(sp)
    312c:	1bb000ef          	jal	ra,3ae6 <memchr>
    3130:	c135                	beqz	a0,3194 <_vfiprintf_r+0x276>
    3132:	ffffd797          	auipc	a5,0xffffd
    3136:	ece78793          	addi	a5,a5,-306 # 0 <_sinit>
    313a:	e795                	bnez	a5,3166 <_vfiprintf_r+0x248>
    313c:	4742                	lw	a4,16(sp)
    313e:	47b2                	lw	a5,12(sp)
    3140:	10077713          	andi	a4,a4,256
    3144:	cf09                	beqz	a4,315e <_vfiprintf_r+0x240>
    3146:	0791                	addi	a5,a5,4
    3148:	c63e                	sw	a5,12(sp)
    314a:	5792                	lw	a5,36(sp)
    314c:	97d2                	add	a5,a5,s4
    314e:	d23e                	sw	a5,36(sp)
    3150:	bd1d                	j	2f86 <_vfiprintf_r+0x68>
    3152:	036787b3          	mul	a5,a5,s6
    3156:	4685                	li	a3,1
    3158:	842e                	mv	s0,a1
    315a:	97ba                	add	a5,a5,a4
    315c:	b741                	j	30dc <_vfiprintf_r+0x1be>
    315e:	079d                	addi	a5,a5,7
    3160:	9be1                	andi	a5,a5,-8
    3162:	07a1                	addi	a5,a5,8
    3164:	b7d5                	j	3148 <_vfiprintf_r+0x22a>
    3166:	0078                	addi	a4,sp,12
    3168:	00000697          	auipc	a3,0x0
    316c:	d7668693          	addi	a3,a3,-650 # 2ede <__sfputs_r>
    3170:	8626                	mv	a2,s1
    3172:	080c                	addi	a1,sp,16
    3174:	854e                	mv	a0,s3
    3176:	00000097          	auipc	ra,0x0
    317a:	000000e7          	jalr	zero # 0 <_sinit>
    317e:	57fd                	li	a5,-1
    3180:	8a2a                	mv	s4,a0
    3182:	fcf514e3          	bne	a0,a5,314a <_vfiprintf_r+0x22c>
    3186:	24de                	lhu	a5,12(s1)
    3188:	0407f793          	andi	a5,a5,64
    318c:	ec0790e3          	bnez	a5,304c <_vfiprintf_r+0x12e>
    3190:	5512                	lw	a0,36(sp)
    3192:	bd75                	j	304e <_vfiprintf_r+0x130>
    3194:	0078                	addi	a4,sp,12
    3196:	00000697          	auipc	a3,0x0
    319a:	d4868693          	addi	a3,a3,-696 # 2ede <__sfputs_r>
    319e:	8626                	mv	a2,s1
    31a0:	080c                	addi	a1,sp,16
    31a2:	854e                	mv	a0,s3
    31a4:	2a01                	jal	32b4 <_printf_i>
    31a6:	bfe1                	j	317e <_vfiprintf_r+0x260>

000031a8 <_printf_common>:
    31a8:	7179                	addi	sp,sp,-48
    31aa:	ca56                	sw	s5,20(sp)
    31ac:	499c                	lw	a5,16(a1)
    31ae:	8aba                	mv	s5,a4
    31b0:	4598                	lw	a4,8(a1)
    31b2:	d422                	sw	s0,40(sp)
    31b4:	d226                	sw	s1,36(sp)
    31b6:	ce4e                	sw	s3,28(sp)
    31b8:	cc52                	sw	s4,24(sp)
    31ba:	d606                	sw	ra,44(sp)
    31bc:	d04a                	sw	s2,32(sp)
    31be:	c85a                	sw	s6,16(sp)
    31c0:	c65e                	sw	s7,12(sp)
    31c2:	89aa                	mv	s3,a0
    31c4:	842e                	mv	s0,a1
    31c6:	84b2                	mv	s1,a2
    31c8:	8a36                	mv	s4,a3
    31ca:	00e7d363          	bge	a5,a4,31d0 <_printf_common+0x28>
    31ce:	87ba                	mv	a5,a4
    31d0:	c09c                	sw	a5,0(s1)
    31d2:	04344703          	lbu	a4,67(s0)
    31d6:	c319                	beqz	a4,31dc <_printf_common+0x34>
    31d8:	0785                	addi	a5,a5,1
    31da:	c09c                	sw	a5,0(s1)
    31dc:	401c                	lw	a5,0(s0)
    31de:	0207f793          	andi	a5,a5,32
    31e2:	c781                	beqz	a5,31ea <_printf_common+0x42>
    31e4:	409c                	lw	a5,0(s1)
    31e6:	0789                	addi	a5,a5,2
    31e8:	c09c                	sw	a5,0(s1)
    31ea:	00042903          	lw	s2,0(s0)
    31ee:	00697913          	andi	s2,s2,6
    31f2:	00091a63          	bnez	s2,3206 <_printf_common+0x5e>
    31f6:	01940b13          	addi	s6,s0,25
    31fa:	5bfd                	li	s7,-1
    31fc:	445c                	lw	a5,12(s0)
    31fe:	4098                	lw	a4,0(s1)
    3200:	8f99                	sub	a5,a5,a4
    3202:	04f94c63          	blt	s2,a5,325a <_printf_common+0xb2>
    3206:	401c                	lw	a5,0(s0)
    3208:	04344683          	lbu	a3,67(s0)
    320c:	0207f793          	andi	a5,a5,32
    3210:	00d036b3          	snez	a3,a3
    3214:	eba5                	bnez	a5,3284 <_printf_common+0xdc>
    3216:	04340613          	addi	a2,s0,67
    321a:	85d2                	mv	a1,s4
    321c:	854e                	mv	a0,s3
    321e:	9a82                	jalr	s5
    3220:	57fd                	li	a5,-1
    3222:	04f50363          	beq	a0,a5,3268 <_printf_common+0xc0>
    3226:	401c                	lw	a5,0(s0)
    3228:	4611                	li	a2,4
    322a:	4098                	lw	a4,0(s1)
    322c:	8b99                	andi	a5,a5,6
    322e:	4454                	lw	a3,12(s0)
    3230:	4481                	li	s1,0
    3232:	00c79763          	bne	a5,a2,3240 <_printf_common+0x98>
    3236:	40e684b3          	sub	s1,a3,a4
    323a:	0004d363          	bgez	s1,3240 <_printf_common+0x98>
    323e:	4481                	li	s1,0
    3240:	441c                	lw	a5,8(s0)
    3242:	4818                	lw	a4,16(s0)
    3244:	00f75463          	bge	a4,a5,324c <_printf_common+0xa4>
    3248:	8f99                	sub	a5,a5,a4
    324a:	94be                	add	s1,s1,a5
    324c:	4901                	li	s2,0
    324e:	0469                	addi	s0,s0,26
    3250:	5b7d                	li	s6,-1
    3252:	05249863          	bne	s1,s2,32a2 <_printf_common+0xfa>
    3256:	4501                	li	a0,0
    3258:	a809                	j	326a <_printf_common+0xc2>
    325a:	4685                	li	a3,1
    325c:	865a                	mv	a2,s6
    325e:	85d2                	mv	a1,s4
    3260:	854e                	mv	a0,s3
    3262:	9a82                	jalr	s5
    3264:	01751e63          	bne	a0,s7,3280 <_printf_common+0xd8>
    3268:	557d                	li	a0,-1
    326a:	50b2                	lw	ra,44(sp)
    326c:	5422                	lw	s0,40(sp)
    326e:	5492                	lw	s1,36(sp)
    3270:	5902                	lw	s2,32(sp)
    3272:	49f2                	lw	s3,28(sp)
    3274:	4a62                	lw	s4,24(sp)
    3276:	4ad2                	lw	s5,20(sp)
    3278:	4b42                	lw	s6,16(sp)
    327a:	4bb2                	lw	s7,12(sp)
    327c:	6145                	addi	sp,sp,48
    327e:	8082                	ret
    3280:	0905                	addi	s2,s2,1
    3282:	bfad                	j	31fc <_printf_common+0x54>
    3284:	00d40733          	add	a4,s0,a3
    3288:	03000613          	li	a2,48
    328c:	04c701a3          	sb	a2,67(a4)
    3290:	04544703          	lbu	a4,69(s0)
    3294:	00168793          	addi	a5,a3,1
    3298:	97a2                	add	a5,a5,s0
    329a:	0689                	addi	a3,a3,2
    329c:	04e781a3          	sb	a4,67(a5)
    32a0:	bf9d                	j	3216 <_printf_common+0x6e>
    32a2:	4685                	li	a3,1
    32a4:	8622                	mv	a2,s0
    32a6:	85d2                	mv	a1,s4
    32a8:	854e                	mv	a0,s3
    32aa:	9a82                	jalr	s5
    32ac:	fb650ee3          	beq	a0,s6,3268 <_printf_common+0xc0>
    32b0:	0905                	addi	s2,s2,1
    32b2:	b745                	j	3252 <_printf_common+0xaa>

000032b4 <_printf_i>:
    32b4:	7179                	addi	sp,sp,-48
    32b6:	d422                	sw	s0,40(sp)
    32b8:	d226                	sw	s1,36(sp)
    32ba:	d04a                	sw	s2,32(sp)
    32bc:	ce4e                	sw	s3,28(sp)
    32be:	d606                	sw	ra,44(sp)
    32c0:	cc52                	sw	s4,24(sp)
    32c2:	ca56                	sw	s5,20(sp)
    32c4:	c85a                	sw	s6,16(sp)
    32c6:	89b6                	mv	s3,a3
    32c8:	2d94                	lbu	a3,24(a1)
    32ca:	06900793          	li	a5,105
    32ce:	8932                	mv	s2,a2
    32d0:	84aa                	mv	s1,a0
    32d2:	842e                	mv	s0,a1
    32d4:	04358613          	addi	a2,a1,67
    32d8:	02f68d63          	beq	a3,a5,3312 <_printf_i+0x5e>
    32dc:	06d7e263          	bltu	a5,a3,3340 <_printf_i+0x8c>
    32e0:	05800793          	li	a5,88
    32e4:	18f68563          	beq	a3,a5,346e <_printf_i+0x1ba>
    32e8:	00d7ed63          	bltu	a5,a3,3302 <_printf_i+0x4e>
    32ec:	20068d63          	beqz	a3,3506 <_printf_i+0x252>
    32f0:	04300793          	li	a5,67
    32f4:	0af68e63          	beq	a3,a5,33b0 <_printf_i+0xfc>
    32f8:	04240a93          	addi	s5,s0,66
    32fc:	04d40123          	sb	a3,66(s0)
    3300:	a0c9                	j	33c2 <_printf_i+0x10e>
    3302:	06300793          	li	a5,99
    3306:	0af68563          	beq	a3,a5,33b0 <_printf_i+0xfc>
    330a:	06400793          	li	a5,100
    330e:	fef695e3          	bne	a3,a5,32f8 <_printf_i+0x44>
    3312:	401c                	lw	a5,0(s0)
    3314:	4308                	lw	a0,0(a4)
    3316:	0807f693          	andi	a3,a5,128
    331a:	00450593          	addi	a1,a0,4
    331e:	c6c5                	beqz	a3,33c6 <_printf_i+0x112>
    3320:	411c                	lw	a5,0(a0)
    3322:	c30c                	sw	a1,0(a4)
    3324:	0007d863          	bgez	a5,3334 <_printf_i+0x80>
    3328:	02d00713          	li	a4,45
    332c:	40f007b3          	neg	a5,a5
    3330:	04e401a3          	sb	a4,67(s0)
    3334:	00001697          	auipc	a3,0x1
    3338:	b1868693          	addi	a3,a3,-1256 # 3e4c <__sf_fake_stdout+0x34>
    333c:	4729                	li	a4,10
    333e:	a865                	j	33f6 <_printf_i+0x142>
    3340:	07000793          	li	a5,112
    3344:	16f68163          	beq	a3,a5,34a6 <_printf_i+0x1f2>
    3348:	02d7e563          	bltu	a5,a3,3372 <_printf_i+0xbe>
    334c:	06e00793          	li	a5,110
    3350:	18f68863          	beq	a3,a5,34e0 <_printf_i+0x22c>
    3354:	06f00793          	li	a5,111
    3358:	faf690e3          	bne	a3,a5,32f8 <_printf_i+0x44>
    335c:	400c                	lw	a1,0(s0)
    335e:	431c                	lw	a5,0(a4)
    3360:	0805f813          	andi	a6,a1,128
    3364:	00478513          	addi	a0,a5,4
    3368:	06080763          	beqz	a6,33d6 <_printf_i+0x122>
    336c:	c308                	sw	a0,0(a4)
    336e:	439c                	lw	a5,0(a5)
    3370:	a885                	j	33e0 <_printf_i+0x12c>
    3372:	07500793          	li	a5,117
    3376:	fef683e3          	beq	a3,a5,335c <_printf_i+0xa8>
    337a:	07800793          	li	a5,120
    337e:	12f68863          	beq	a3,a5,34ae <_printf_i+0x1fa>
    3382:	07300793          	li	a5,115
    3386:	f6f699e3          	bne	a3,a5,32f8 <_printf_i+0x44>
    338a:	431c                	lw	a5,0(a4)
    338c:	41d0                	lw	a2,4(a1)
    338e:	4581                	li	a1,0
    3390:	00478693          	addi	a3,a5,4
    3394:	c314                	sw	a3,0(a4)
    3396:	0007aa83          	lw	s5,0(a5)
    339a:	8556                	mv	a0,s5
    339c:	27a9                	jal	3ae6 <memchr>
    339e:	c501                	beqz	a0,33a6 <_printf_i+0xf2>
    33a0:	41550533          	sub	a0,a0,s5
    33a4:	c048                	sw	a0,4(s0)
    33a6:	405c                	lw	a5,4(s0)
    33a8:	c81c                	sw	a5,16(s0)
    33aa:	040401a3          	sb	zero,67(s0)
    33ae:	a861                	j	3446 <_printf_i+0x192>
    33b0:	431c                	lw	a5,0(a4)
    33b2:	04240a93          	addi	s5,s0,66
    33b6:	00478693          	addi	a3,a5,4
    33ba:	439c                	lw	a5,0(a5)
    33bc:	c314                	sw	a3,0(a4)
    33be:	04f40123          	sb	a5,66(s0)
    33c2:	4785                	li	a5,1
    33c4:	b7d5                	j	33a8 <_printf_i+0xf4>
    33c6:	0407f693          	andi	a3,a5,64
    33ca:	411c                	lw	a5,0(a0)
    33cc:	c30c                	sw	a1,0(a4)
    33ce:	dab9                	beqz	a3,3324 <_printf_i+0x70>
    33d0:	07c2                	slli	a5,a5,0x10
    33d2:	87c1                	srai	a5,a5,0x10
    33d4:	bf81                	j	3324 <_printf_i+0x70>
    33d6:	0405f593          	andi	a1,a1,64
    33da:	c308                	sw	a0,0(a4)
    33dc:	d9c9                	beqz	a1,336e <_printf_i+0xba>
    33de:	239e                	lhu	a5,0(a5)
    33e0:	06f00713          	li	a4,111
    33e4:	0ee68663          	beq	a3,a4,34d0 <_printf_i+0x21c>
    33e8:	00001697          	auipc	a3,0x1
    33ec:	a6468693          	addi	a3,a3,-1436 # 3e4c <__sf_fake_stdout+0x34>
    33f0:	4729                	li	a4,10
    33f2:	040401a3          	sb	zero,67(s0)
    33f6:	404c                	lw	a1,4(s0)
    33f8:	c40c                	sw	a1,8(s0)
    33fa:	0005c563          	bltz	a1,3404 <_printf_i+0x150>
    33fe:	4008                	lw	a0,0(s0)
    3400:	996d                	andi	a0,a0,-5
    3402:	c008                	sw	a0,0(s0)
    3404:	e399                	bnez	a5,340a <_printf_i+0x156>
    3406:	8ab2                	mv	s5,a2
    3408:	cd89                	beqz	a1,3422 <_printf_i+0x16e>
    340a:	8ab2                	mv	s5,a2
    340c:	02e7f5b3          	remu	a1,a5,a4
    3410:	1afd                	addi	s5,s5,-1
    3412:	95b6                	add	a1,a1,a3
    3414:	218c                	lbu	a1,0(a1)
    3416:	00ba8023          	sb	a1,0(s5)
    341a:	02e7d5b3          	divu	a1,a5,a4
    341e:	0ae7ff63          	bgeu	a5,a4,34dc <_printf_i+0x228>
    3422:	47a1                	li	a5,8
    3424:	00f71e63          	bne	a4,a5,3440 <_printf_i+0x18c>
    3428:	401c                	lw	a5,0(s0)
    342a:	8b85                	andi	a5,a5,1
    342c:	cb91                	beqz	a5,3440 <_printf_i+0x18c>
    342e:	4058                	lw	a4,4(s0)
    3430:	481c                	lw	a5,16(s0)
    3432:	00e7c763          	blt	a5,a4,3440 <_printf_i+0x18c>
    3436:	03000793          	li	a5,48
    343a:	fefa8fa3          	sb	a5,-1(s5)
    343e:	1afd                	addi	s5,s5,-1
    3440:	41560633          	sub	a2,a2,s5
    3444:	c810                	sw	a2,16(s0)
    3446:	874e                	mv	a4,s3
    3448:	86ca                	mv	a3,s2
    344a:	0070                	addi	a2,sp,12
    344c:	85a2                	mv	a1,s0
    344e:	8526                	mv	a0,s1
    3450:	3ba1                	jal	31a8 <_printf_common>
    3452:	5a7d                	li	s4,-1
    3454:	0b451d63          	bne	a0,s4,350e <_printf_i+0x25a>
    3458:	557d                	li	a0,-1
    345a:	50b2                	lw	ra,44(sp)
    345c:	5422                	lw	s0,40(sp)
    345e:	5492                	lw	s1,36(sp)
    3460:	5902                	lw	s2,32(sp)
    3462:	49f2                	lw	s3,28(sp)
    3464:	4a62                	lw	s4,24(sp)
    3466:	4ad2                	lw	s5,20(sp)
    3468:	4b42                	lw	s6,16(sp)
    346a:	6145                	addi	sp,sp,48
    346c:	8082                	ret
    346e:	04d582a3          	sb	a3,69(a1)
    3472:	00001697          	auipc	a3,0x1
    3476:	9da68693          	addi	a3,a3,-1574 # 3e4c <__sf_fake_stdout+0x34>
    347a:	400c                	lw	a1,0(s0)
    347c:	4308                	lw	a0,0(a4)
    347e:	0805f813          	andi	a6,a1,128
    3482:	411c                	lw	a5,0(a0)
    3484:	0511                	addi	a0,a0,4
    3486:	02080d63          	beqz	a6,34c0 <_printf_i+0x20c>
    348a:	c308                	sw	a0,0(a4)
    348c:	0015f713          	andi	a4,a1,1
    3490:	c701                	beqz	a4,3498 <_printf_i+0x1e4>
    3492:	0205e593          	ori	a1,a1,32
    3496:	c00c                	sw	a1,0(s0)
    3498:	4741                	li	a4,16
    349a:	ffa1                	bnez	a5,33f2 <_printf_i+0x13e>
    349c:	400c                	lw	a1,0(s0)
    349e:	fdf5f593          	andi	a1,a1,-33
    34a2:	c00c                	sw	a1,0(s0)
    34a4:	b7b9                	j	33f2 <_printf_i+0x13e>
    34a6:	419c                	lw	a5,0(a1)
    34a8:	0207e793          	ori	a5,a5,32
    34ac:	c19c                	sw	a5,0(a1)
    34ae:	07800793          	li	a5,120
    34b2:	04f402a3          	sb	a5,69(s0)
    34b6:	00001697          	auipc	a3,0x1
    34ba:	9aa68693          	addi	a3,a3,-1622 # 3e60 <__sf_fake_stdout+0x48>
    34be:	bf75                	j	347a <_printf_i+0x1c6>
    34c0:	0405f813          	andi	a6,a1,64
    34c4:	c308                	sw	a0,0(a4)
    34c6:	fc0803e3          	beqz	a6,348c <_printf_i+0x1d8>
    34ca:	07c2                	slli	a5,a5,0x10
    34cc:	83c1                	srli	a5,a5,0x10
    34ce:	bf7d                	j	348c <_printf_i+0x1d8>
    34d0:	00001697          	auipc	a3,0x1
    34d4:	97c68693          	addi	a3,a3,-1668 # 3e4c <__sf_fake_stdout+0x34>
    34d8:	4721                	li	a4,8
    34da:	bf21                	j	33f2 <_printf_i+0x13e>
    34dc:	87ae                	mv	a5,a1
    34de:	b73d                	j	340c <_printf_i+0x158>
    34e0:	4194                	lw	a3,0(a1)
    34e2:	431c                	lw	a5,0(a4)
    34e4:	49cc                	lw	a1,20(a1)
    34e6:	0806f813          	andi	a6,a3,128
    34ea:	00478513          	addi	a0,a5,4
    34ee:	00080663          	beqz	a6,34fa <_printf_i+0x246>
    34f2:	c308                	sw	a0,0(a4)
    34f4:	439c                	lw	a5,0(a5)
    34f6:	c38c                	sw	a1,0(a5)
    34f8:	a039                	j	3506 <_printf_i+0x252>
    34fa:	c308                	sw	a0,0(a4)
    34fc:	0406f693          	andi	a3,a3,64
    3500:	439c                	lw	a5,0(a5)
    3502:	daf5                	beqz	a3,34f6 <_printf_i+0x242>
    3504:	a38e                	sh	a1,0(a5)
    3506:	00042823          	sw	zero,16(s0)
    350a:	8ab2                	mv	s5,a2
    350c:	bf2d                	j	3446 <_printf_i+0x192>
    350e:	4814                	lw	a3,16(s0)
    3510:	8656                	mv	a2,s5
    3512:	85ca                	mv	a1,s2
    3514:	8526                	mv	a0,s1
    3516:	9982                	jalr	s3
    3518:	f54500e3          	beq	a0,s4,3458 <_printf_i+0x1a4>
    351c:	401c                	lw	a5,0(s0)
    351e:	8b89                	andi	a5,a5,2
    3520:	e78d                	bnez	a5,354a <_printf_i+0x296>
    3522:	47b2                	lw	a5,12(sp)
    3524:	4448                	lw	a0,12(s0)
    3526:	f2f55ae3          	bge	a0,a5,345a <_printf_i+0x1a6>
    352a:	853e                	mv	a0,a5
    352c:	b73d                	j	345a <_printf_i+0x1a6>
    352e:	4685                	li	a3,1
    3530:	8656                	mv	a2,s5
    3532:	85ca                	mv	a1,s2
    3534:	8526                	mv	a0,s1
    3536:	9982                	jalr	s3
    3538:	f36500e3          	beq	a0,s6,3458 <_printf_i+0x1a4>
    353c:	0a05                	addi	s4,s4,1
    353e:	445c                	lw	a5,12(s0)
    3540:	4732                	lw	a4,12(sp)
    3542:	8f99                	sub	a5,a5,a4
    3544:	fefa45e3          	blt	s4,a5,352e <_printf_i+0x27a>
    3548:	bfe9                	j	3522 <_printf_i+0x26e>
    354a:	4a01                	li	s4,0
    354c:	01940a93          	addi	s5,s0,25
    3550:	5b7d                	li	s6,-1
    3552:	b7f5                	j	353e <_printf_i+0x28a>

00003554 <_sbrk_r>:
    3554:	1141                	addi	sp,sp,-16
    3556:	c422                	sw	s0,8(sp)
    3558:	842a                	mv	s0,a0
    355a:	852e                	mv	a0,a1
    355c:	8201a823          	sw	zero,-2000(gp) # 200000b0 <errno>
    3560:	c606                	sw	ra,12(sp)
    3562:	8fbfd0ef          	jal	ra,e5c <_sbrk>
    3566:	57fd                	li	a5,-1
    3568:	00f51763          	bne	a0,a5,3576 <_sbrk_r+0x22>
    356c:	83018793          	addi	a5,gp,-2000 # 200000b0 <errno>
    3570:	439c                	lw	a5,0(a5)
    3572:	c391                	beqz	a5,3576 <_sbrk_r+0x22>
    3574:	c01c                	sw	a5,0(s0)
    3576:	40b2                	lw	ra,12(sp)
    3578:	4422                	lw	s0,8(sp)
    357a:	0141                	addi	sp,sp,16
    357c:	8082                	ret

0000357e <__sread>:
    357e:	1141                	addi	sp,sp,-16
    3580:	c422                	sw	s0,8(sp)
    3582:	842e                	mv	s0,a1
    3584:	00e59583          	lh	a1,14(a1)
    3588:	c606                	sw	ra,12(sp)
    358a:	2ba5                	jal	3b02 <_read_r>
    358c:	00054963          	bltz	a0,359e <__sread+0x20>
    3590:	487c                	lw	a5,84(s0)
    3592:	97aa                	add	a5,a5,a0
    3594:	c87c                	sw	a5,84(s0)
    3596:	40b2                	lw	ra,12(sp)
    3598:	4422                	lw	s0,8(sp)
    359a:	0141                	addi	sp,sp,16
    359c:	8082                	ret
    359e:	245e                	lhu	a5,12(s0)
    35a0:	777d                	lui	a4,0xfffff
    35a2:	177d                	addi	a4,a4,-1
    35a4:	8ff9                	and	a5,a5,a4
    35a6:	a45e                	sh	a5,12(s0)
    35a8:	b7fd                	j	3596 <__sread+0x18>

000035aa <__swrite>:
    35aa:	25de                	lhu	a5,12(a1)
    35ac:	1101                	addi	sp,sp,-32
    35ae:	cc22                	sw	s0,24(sp)
    35b0:	ca26                	sw	s1,20(sp)
    35b2:	c84a                	sw	s2,16(sp)
    35b4:	c64e                	sw	s3,12(sp)
    35b6:	ce06                	sw	ra,28(sp)
    35b8:	1007f793          	andi	a5,a5,256
    35bc:	84aa                	mv	s1,a0
    35be:	842e                	mv	s0,a1
    35c0:	8932                	mv	s2,a2
    35c2:	89b6                	mv	s3,a3
    35c4:	c791                	beqz	a5,35d0 <__swrite+0x26>
    35c6:	00e59583          	lh	a1,14(a1)
    35ca:	4689                	li	a3,2
    35cc:	4601                	li	a2,0
    35ce:	2119                	jal	39d4 <_lseek_r>
    35d0:	245e                	lhu	a5,12(s0)
    35d2:	777d                	lui	a4,0xfffff
    35d4:	177d                	addi	a4,a4,-1
    35d6:	8ff9                	and	a5,a5,a4
    35d8:	a45e                	sh	a5,12(s0)
    35da:	00e41583          	lh	a1,14(s0)
    35de:	4462                	lw	s0,24(sp)
    35e0:	40f2                	lw	ra,28(sp)
    35e2:	86ce                	mv	a3,s3
    35e4:	864a                	mv	a2,s2
    35e6:	49b2                	lw	s3,12(sp)
    35e8:	4942                	lw	s2,16(sp)
    35ea:	8526                	mv	a0,s1
    35ec:	44d2                	lw	s1,20(sp)
    35ee:	6105                	addi	sp,sp,32
    35f0:	a8dd                	j	36e6 <_write_r>

000035f2 <__sseek>:
    35f2:	1141                	addi	sp,sp,-16
    35f4:	c422                	sw	s0,8(sp)
    35f6:	842e                	mv	s0,a1
    35f8:	00e59583          	lh	a1,14(a1)
    35fc:	c606                	sw	ra,12(sp)
    35fe:	2ed9                	jal	39d4 <_lseek_r>
    3600:	57fd                	li	a5,-1
    3602:	245a                	lhu	a4,12(s0)
    3604:	00f51a63          	bne	a0,a5,3618 <__sseek+0x26>
    3608:	77fd                	lui	a5,0xfffff
    360a:	17fd                	addi	a5,a5,-1
    360c:	8ff9                	and	a5,a5,a4
    360e:	a45e                	sh	a5,12(s0)
    3610:	40b2                	lw	ra,12(sp)
    3612:	4422                	lw	s0,8(sp)
    3614:	0141                	addi	sp,sp,16
    3616:	8082                	ret
    3618:	6785                	lui	a5,0x1
    361a:	8fd9                	or	a5,a5,a4
    361c:	a45e                	sh	a5,12(s0)
    361e:	c868                	sw	a0,84(s0)
    3620:	bfc5                	j	3610 <__sseek+0x1e>

00003622 <__sclose>:
    3622:	00e59583          	lh	a1,14(a1)
    3626:	a2fd                	j	3814 <_close_r>

00003628 <__swbuf_r>:
    3628:	1101                	addi	sp,sp,-32
    362a:	cc22                	sw	s0,24(sp)
    362c:	ca26                	sw	s1,20(sp)
    362e:	c84a                	sw	s2,16(sp)
    3630:	ce06                	sw	ra,28(sp)
    3632:	c64e                	sw	s3,12(sp)
    3634:	84aa                	mv	s1,a0
    3636:	892e                	mv	s2,a1
    3638:	8432                	mv	s0,a2
    363a:	c509                	beqz	a0,3644 <__swbuf_r+0x1c>
    363c:	4d1c                	lw	a5,24(a0)
    363e:	e399                	bnez	a5,3644 <__swbuf_r+0x1c>
    3640:	d90ff0ef          	jal	ra,2bd0 <__sinit>
    3644:	00000797          	auipc	a5,0x0
    3648:	7b478793          	addi	a5,a5,1972 # 3df8 <__sf_fake_stdin>
    364c:	06f41763          	bne	s0,a5,36ba <__swbuf_r+0x92>
    3650:	40c0                	lw	s0,4(s1)
    3652:	4c1c                	lw	a5,24(s0)
    3654:	c41c                	sw	a5,8(s0)
    3656:	245e                	lhu	a5,12(s0)
    3658:	8ba1                	andi	a5,a5,8
    365a:	c3c1                	beqz	a5,36da <__swbuf_r+0xb2>
    365c:	481c                	lw	a5,16(s0)
    365e:	cfb5                	beqz	a5,36da <__swbuf_r+0xb2>
    3660:	481c                	lw	a5,16(s0)
    3662:	4008                	lw	a0,0(s0)
    3664:	0ff97993          	andi	s3,s2,255
    3668:	0ff97913          	andi	s2,s2,255
    366c:	8d1d                	sub	a0,a0,a5
    366e:	485c                	lw	a5,20(s0)
    3670:	00f54663          	blt	a0,a5,367c <__swbuf_r+0x54>
    3674:	85a2                	mv	a1,s0
    3676:	8526                	mv	a0,s1
    3678:	2cdd                	jal	396e <_fflush_r>
    367a:	e525                	bnez	a0,36e2 <__swbuf_r+0xba>
    367c:	441c                	lw	a5,8(s0)
    367e:	0505                	addi	a0,a0,1
    3680:	17fd                	addi	a5,a5,-1
    3682:	c41c                	sw	a5,8(s0)
    3684:	401c                	lw	a5,0(s0)
    3686:	00178713          	addi	a4,a5,1
    368a:	c018                	sw	a4,0(s0)
    368c:	01378023          	sb	s3,0(a5)
    3690:	485c                	lw	a5,20(s0)
    3692:	00a78863          	beq	a5,a0,36a2 <__swbuf_r+0x7a>
    3696:	245e                	lhu	a5,12(s0)
    3698:	8b85                	andi	a5,a5,1
    369a:	cb81                	beqz	a5,36aa <__swbuf_r+0x82>
    369c:	47a9                	li	a5,10
    369e:	00f91663          	bne	s2,a5,36aa <__swbuf_r+0x82>
    36a2:	85a2                	mv	a1,s0
    36a4:	8526                	mv	a0,s1
    36a6:	24e1                	jal	396e <_fflush_r>
    36a8:	ed0d                	bnez	a0,36e2 <__swbuf_r+0xba>
    36aa:	40f2                	lw	ra,28(sp)
    36ac:	4462                	lw	s0,24(sp)
    36ae:	854a                	mv	a0,s2
    36b0:	44d2                	lw	s1,20(sp)
    36b2:	4942                	lw	s2,16(sp)
    36b4:	49b2                	lw	s3,12(sp)
    36b6:	6105                	addi	sp,sp,32
    36b8:	8082                	ret
    36ba:	00000797          	auipc	a5,0x0
    36be:	75e78793          	addi	a5,a5,1886 # 3e18 <__sf_fake_stdout>
    36c2:	00f41463          	bne	s0,a5,36ca <__swbuf_r+0xa2>
    36c6:	4480                	lw	s0,8(s1)
    36c8:	b769                	j	3652 <__swbuf_r+0x2a>
    36ca:	00000797          	auipc	a5,0x0
    36ce:	70e78793          	addi	a5,a5,1806 # 3dd8 <__sf_fake_stderr>
    36d2:	f8f410e3          	bne	s0,a5,3652 <__swbuf_r+0x2a>
    36d6:	44c0                	lw	s0,12(s1)
    36d8:	bfad                	j	3652 <__swbuf_r+0x2a>
    36da:	85a2                	mv	a1,s0
    36dc:	8526                	mv	a0,s1
    36de:	281d                	jal	3714 <__swsetup_r>
    36e0:	d141                	beqz	a0,3660 <__swbuf_r+0x38>
    36e2:	597d                	li	s2,-1
    36e4:	b7d9                	j	36aa <__swbuf_r+0x82>

000036e6 <_write_r>:
    36e6:	1141                	addi	sp,sp,-16
    36e8:	c422                	sw	s0,8(sp)
    36ea:	842a                	mv	s0,a0
    36ec:	852e                	mv	a0,a1
    36ee:	85b2                	mv	a1,a2
    36f0:	8636                	mv	a2,a3
    36f2:	8201a823          	sw	zero,-2000(gp) # 200000b0 <errno>
    36f6:	c606                	sw	ra,12(sp)
    36f8:	f26fd0ef          	jal	ra,e1e <_write>
    36fc:	57fd                	li	a5,-1
    36fe:	00f51763          	bne	a0,a5,370c <_write_r+0x26>
    3702:	83018793          	addi	a5,gp,-2000 # 200000b0 <errno>
    3706:	439c                	lw	a5,0(a5)
    3708:	c391                	beqz	a5,370c <_write_r+0x26>
    370a:	c01c                	sw	a5,0(s0)
    370c:	40b2                	lw	ra,12(sp)
    370e:	4422                	lw	s0,8(sp)
    3710:	0141                	addi	sp,sp,16
    3712:	8082                	ret

00003714 <__swsetup_r>:
    3714:	1141                	addi	sp,sp,-16
    3716:	80c18793          	addi	a5,gp,-2036 # 2000008c <_impure_ptr>
    371a:	c226                	sw	s1,4(sp)
    371c:	4384                	lw	s1,0(a5)
    371e:	c422                	sw	s0,8(sp)
    3720:	c04a                	sw	s2,0(sp)
    3722:	c606                	sw	ra,12(sp)
    3724:	892a                	mv	s2,a0
    3726:	842e                	mv	s0,a1
    3728:	c491                	beqz	s1,3734 <__swsetup_r+0x20>
    372a:	4c9c                	lw	a5,24(s1)
    372c:	e781                	bnez	a5,3734 <__swsetup_r+0x20>
    372e:	8526                	mv	a0,s1
    3730:	ca0ff0ef          	jal	ra,2bd0 <__sinit>
    3734:	00000797          	auipc	a5,0x0
    3738:	6c478793          	addi	a5,a5,1732 # 3df8 <__sf_fake_stdin>
    373c:	02f41b63          	bne	s0,a5,3772 <__swsetup_r+0x5e>
    3740:	40c0                	lw	s0,4(s1)
    3742:	00c41703          	lh	a4,12(s0)
    3746:	01071793          	slli	a5,a4,0x10
    374a:	83c1                	srli	a5,a5,0x10
    374c:	0087f693          	andi	a3,a5,8
    3750:	eab5                	bnez	a3,37c4 <__swsetup_r+0xb0>
    3752:	0107f693          	andi	a3,a5,16
    3756:	ee95                	bnez	a3,3792 <__swsetup_r+0x7e>
    3758:	47a5                	li	a5,9
    375a:	00f92023          	sw	a5,0(s2)
    375e:	04076713          	ori	a4,a4,64
    3762:	a45a                	sh	a4,12(s0)
    3764:	557d                	li	a0,-1
    3766:	40b2                	lw	ra,12(sp)
    3768:	4422                	lw	s0,8(sp)
    376a:	4492                	lw	s1,4(sp)
    376c:	4902                	lw	s2,0(sp)
    376e:	0141                	addi	sp,sp,16
    3770:	8082                	ret
    3772:	00000797          	auipc	a5,0x0
    3776:	6a678793          	addi	a5,a5,1702 # 3e18 <__sf_fake_stdout>
    377a:	00f41463          	bne	s0,a5,3782 <__swsetup_r+0x6e>
    377e:	4480                	lw	s0,8(s1)
    3780:	b7c9                	j	3742 <__swsetup_r+0x2e>
    3782:	00000797          	auipc	a5,0x0
    3786:	65678793          	addi	a5,a5,1622 # 3dd8 <__sf_fake_stderr>
    378a:	faf41ce3          	bne	s0,a5,3742 <__swsetup_r+0x2e>
    378e:	44c0                	lw	s0,12(s1)
    3790:	bf4d                	j	3742 <__swsetup_r+0x2e>
    3792:	8b91                	andi	a5,a5,4
    3794:	c785                	beqz	a5,37bc <__swsetup_r+0xa8>
    3796:	584c                	lw	a1,52(s0)
    3798:	c991                	beqz	a1,37ac <__swsetup_r+0x98>
    379a:	04440793          	addi	a5,s0,68
    379e:	00f58563          	beq	a1,a5,37a8 <__swsetup_r+0x94>
    37a2:	854a                	mv	a0,s2
    37a4:	d98ff0ef          	jal	ra,2d3c <_free_r>
    37a8:	02042a23          	sw	zero,52(s0)
    37ac:	245e                	lhu	a5,12(s0)
    37ae:	00042223          	sw	zero,4(s0)
    37b2:	fdb7f793          	andi	a5,a5,-37
    37b6:	a45e                	sh	a5,12(s0)
    37b8:	481c                	lw	a5,16(s0)
    37ba:	c01c                	sw	a5,0(s0)
    37bc:	245e                	lhu	a5,12(s0)
    37be:	0087e793          	ori	a5,a5,8
    37c2:	a45e                	sh	a5,12(s0)
    37c4:	481c                	lw	a5,16(s0)
    37c6:	eb99                	bnez	a5,37dc <__swsetup_r+0xc8>
    37c8:	245e                	lhu	a5,12(s0)
    37ca:	20000713          	li	a4,512
    37ce:	2807f793          	andi	a5,a5,640
    37d2:	00e78563          	beq	a5,a4,37dc <__swsetup_r+0xc8>
    37d6:	85a2                	mv	a1,s0
    37d8:	854a                	mv	a0,s2
    37da:	2cb5                	jal	3a56 <__smakebuf_r>
    37dc:	245e                	lhu	a5,12(s0)
    37de:	0017f713          	andi	a4,a5,1
    37e2:	c31d                	beqz	a4,3808 <__swsetup_r+0xf4>
    37e4:	485c                	lw	a5,20(s0)
    37e6:	00042423          	sw	zero,8(s0)
    37ea:	40f007b3          	neg	a5,a5
    37ee:	cc1c                	sw	a5,24(s0)
    37f0:	481c                	lw	a5,16(s0)
    37f2:	4501                	li	a0,0
    37f4:	fbad                	bnez	a5,3766 <__swsetup_r+0x52>
    37f6:	00c41783          	lh	a5,12(s0)
    37fa:	0807f713          	andi	a4,a5,128
    37fe:	d725                	beqz	a4,3766 <__swsetup_r+0x52>
    3800:	0407e793          	ori	a5,a5,64
    3804:	a45e                	sh	a5,12(s0)
    3806:	bfb9                	j	3764 <__swsetup_r+0x50>
    3808:	8b89                	andi	a5,a5,2
    380a:	4701                	li	a4,0
    380c:	e391                	bnez	a5,3810 <__swsetup_r+0xfc>
    380e:	4858                	lw	a4,20(s0)
    3810:	c418                	sw	a4,8(s0)
    3812:	bff9                	j	37f0 <__swsetup_r+0xdc>

00003814 <_close_r>:
    3814:	1141                	addi	sp,sp,-16
    3816:	c422                	sw	s0,8(sp)
    3818:	842a                	mv	s0,a0
    381a:	852e                	mv	a0,a1
    381c:	8201a823          	sw	zero,-2000(gp) # 200000b0 <errno>
    3820:	c606                	sw	ra,12(sp)
    3822:	2eb9                	jal	3b80 <_close>
    3824:	57fd                	li	a5,-1
    3826:	00f51763          	bne	a0,a5,3834 <_close_r+0x20>
    382a:	83018793          	addi	a5,gp,-2000 # 200000b0 <errno>
    382e:	439c                	lw	a5,0(a5)
    3830:	c391                	beqz	a5,3834 <_close_r+0x20>
    3832:	c01c                	sw	a5,0(s0)
    3834:	40b2                	lw	ra,12(sp)
    3836:	4422                	lw	s0,8(sp)
    3838:	0141                	addi	sp,sp,16
    383a:	8082                	ret

0000383c <__sflush_r>:
    383c:	25de                	lhu	a5,12(a1)
    383e:	1101                	addi	sp,sp,-32
    3840:	cc22                	sw	s0,24(sp)
    3842:	ca26                	sw	s1,20(sp)
    3844:	ce06                	sw	ra,28(sp)
    3846:	c84a                	sw	s2,16(sp)
    3848:	c64e                	sw	s3,12(sp)
    384a:	0087f713          	andi	a4,a5,8
    384e:	84aa                	mv	s1,a0
    3850:	842e                	mv	s0,a1
    3852:	ef61                	bnez	a4,392a <__sflush_r+0xee>
    3854:	41d8                	lw	a4,4(a1)
    3856:	00e04d63          	bgtz	a4,3870 <__sflush_r+0x34>
    385a:	41b8                	lw	a4,64(a1)
    385c:	00e04a63          	bgtz	a4,3870 <__sflush_r+0x34>
    3860:	4501                	li	a0,0
    3862:	40f2                	lw	ra,28(sp)
    3864:	4462                	lw	s0,24(sp)
    3866:	44d2                	lw	s1,20(sp)
    3868:	4942                	lw	s2,16(sp)
    386a:	49b2                	lw	s3,12(sp)
    386c:	6105                	addi	sp,sp,32
    386e:	8082                	ret
    3870:	5458                	lw	a4,44(s0)
    3872:	d77d                	beqz	a4,3860 <__sflush_r+0x24>
    3874:	0004a903          	lw	s2,0(s1)
    3878:	01379693          	slli	a3,a5,0x13
    387c:	0004a023          	sw	zero,0(s1)
    3880:	0606dc63          	bgez	a3,38f8 <__sflush_r+0xbc>
    3884:	4870                	lw	a2,84(s0)
    3886:	245e                	lhu	a5,12(s0)
    3888:	8b91                	andi	a5,a5,4
    388a:	c799                	beqz	a5,3898 <__sflush_r+0x5c>
    388c:	405c                	lw	a5,4(s0)
    388e:	8e1d                	sub	a2,a2,a5
    3890:	585c                	lw	a5,52(s0)
    3892:	c399                	beqz	a5,3898 <__sflush_r+0x5c>
    3894:	403c                	lw	a5,64(s0)
    3896:	8e1d                	sub	a2,a2,a5
    3898:	545c                	lw	a5,44(s0)
    389a:	500c                	lw	a1,32(s0)
    389c:	4681                	li	a3,0
    389e:	8526                	mv	a0,s1
    38a0:	9782                	jalr	a5
    38a2:	57fd                	li	a5,-1
    38a4:	245a                	lhu	a4,12(s0)
    38a6:	00f51d63          	bne	a0,a5,38c0 <__sflush_r+0x84>
    38aa:	4094                	lw	a3,0(s1)
    38ac:	47f5                	li	a5,29
    38ae:	06d7e963          	bltu	a5,a3,3920 <__sflush_r+0xe4>
    38b2:	204007b7          	lui	a5,0x20400
    38b6:	0785                	addi	a5,a5,1
    38b8:	00d7d7b3          	srl	a5,a5,a3
    38bc:	8b85                	andi	a5,a5,1
    38be:	c3ad                	beqz	a5,3920 <__sflush_r+0xe4>
    38c0:	481c                	lw	a5,16(s0)
    38c2:	00042223          	sw	zero,4(s0)
    38c6:	c01c                	sw	a5,0(s0)
    38c8:	01371793          	slli	a5,a4,0x13
    38cc:	0007d863          	bgez	a5,38dc <__sflush_r+0xa0>
    38d0:	57fd                	li	a5,-1
    38d2:	00f51463          	bne	a0,a5,38da <__sflush_r+0x9e>
    38d6:	409c                	lw	a5,0(s1)
    38d8:	e391                	bnez	a5,38dc <__sflush_r+0xa0>
    38da:	c868                	sw	a0,84(s0)
    38dc:	584c                	lw	a1,52(s0)
    38de:	0124a023          	sw	s2,0(s1)
    38e2:	ddbd                	beqz	a1,3860 <__sflush_r+0x24>
    38e4:	04440793          	addi	a5,s0,68
    38e8:	00f58563          	beq	a1,a5,38f2 <__sflush_r+0xb6>
    38ec:	8526                	mv	a0,s1
    38ee:	c4eff0ef          	jal	ra,2d3c <_free_r>
    38f2:	02042a23          	sw	zero,52(s0)
    38f6:	b7ad                	j	3860 <__sflush_r+0x24>
    38f8:	500c                	lw	a1,32(s0)
    38fa:	4601                	li	a2,0
    38fc:	4685                	li	a3,1
    38fe:	8526                	mv	a0,s1
    3900:	9702                	jalr	a4
    3902:	57fd                	li	a5,-1
    3904:	862a                	mv	a2,a0
    3906:	f8f510e3          	bne	a0,a5,3886 <__sflush_r+0x4a>
    390a:	409c                	lw	a5,0(s1)
    390c:	dfad                	beqz	a5,3886 <__sflush_r+0x4a>
    390e:	4775                	li	a4,29
    3910:	00e78563          	beq	a5,a4,391a <__sflush_r+0xde>
    3914:	4759                	li	a4,22
    3916:	04e79363          	bne	a5,a4,395c <__sflush_r+0x120>
    391a:	0124a023          	sw	s2,0(s1)
    391e:	b789                	j	3860 <__sflush_r+0x24>
    3920:	04076713          	ori	a4,a4,64
    3924:	a45a                	sh	a4,12(s0)
    3926:	557d                	li	a0,-1
    3928:	bf2d                	j	3862 <__sflush_r+0x26>
    392a:	0105a983          	lw	s3,16(a1)
    392e:	f20989e3          	beqz	s3,3860 <__sflush_r+0x24>
    3932:	0005a903          	lw	s2,0(a1)
    3936:	8b8d                	andi	a5,a5,3
    3938:	0135a023          	sw	s3,0(a1)
    393c:	41390933          	sub	s2,s2,s3
    3940:	4701                	li	a4,0
    3942:	e391                	bnez	a5,3946 <__sflush_r+0x10a>
    3944:	49d8                	lw	a4,20(a1)
    3946:	c418                	sw	a4,8(s0)
    3948:	f1205ce3          	blez	s2,3860 <__sflush_r+0x24>
    394c:	541c                	lw	a5,40(s0)
    394e:	500c                	lw	a1,32(s0)
    3950:	86ca                	mv	a3,s2
    3952:	864e                	mv	a2,s3
    3954:	8526                	mv	a0,s1
    3956:	9782                	jalr	a5
    3958:	00a04763          	bgtz	a0,3966 <__sflush_r+0x12a>
    395c:	245e                	lhu	a5,12(s0)
    395e:	0407e793          	ori	a5,a5,64
    3962:	a45e                	sh	a5,12(s0)
    3964:	b7c9                	j	3926 <__sflush_r+0xea>
    3966:	99aa                	add	s3,s3,a0
    3968:	40a90933          	sub	s2,s2,a0
    396c:	bff1                	j	3948 <__sflush_r+0x10c>

0000396e <_fflush_r>:
    396e:	499c                	lw	a5,16(a1)
    3970:	c3a5                	beqz	a5,39d0 <_fflush_r+0x62>
    3972:	1101                	addi	sp,sp,-32
    3974:	cc22                	sw	s0,24(sp)
    3976:	ce06                	sw	ra,28(sp)
    3978:	842a                	mv	s0,a0
    397a:	c519                	beqz	a0,3988 <_fflush_r+0x1a>
    397c:	4d1c                	lw	a5,24(a0)
    397e:	e789                	bnez	a5,3988 <_fflush_r+0x1a>
    3980:	c62e                	sw	a1,12(sp)
    3982:	a4eff0ef          	jal	ra,2bd0 <__sinit>
    3986:	45b2                	lw	a1,12(sp)
    3988:	00000797          	auipc	a5,0x0
    398c:	47078793          	addi	a5,a5,1136 # 3df8 <__sf_fake_stdin>
    3990:	00f59b63          	bne	a1,a5,39a6 <_fflush_r+0x38>
    3994:	404c                	lw	a1,4(s0)
    3996:	00c59783          	lh	a5,12(a1)
    399a:	c795                	beqz	a5,39c6 <_fflush_r+0x58>
    399c:	8522                	mv	a0,s0
    399e:	4462                	lw	s0,24(sp)
    39a0:	40f2                	lw	ra,28(sp)
    39a2:	6105                	addi	sp,sp,32
    39a4:	bd61                	j	383c <__sflush_r>
    39a6:	00000797          	auipc	a5,0x0
    39aa:	47278793          	addi	a5,a5,1138 # 3e18 <__sf_fake_stdout>
    39ae:	00f59463          	bne	a1,a5,39b6 <_fflush_r+0x48>
    39b2:	440c                	lw	a1,8(s0)
    39b4:	b7cd                	j	3996 <_fflush_r+0x28>
    39b6:	00000797          	auipc	a5,0x0
    39ba:	42278793          	addi	a5,a5,1058 # 3dd8 <__sf_fake_stderr>
    39be:	fcf59ce3          	bne	a1,a5,3996 <_fflush_r+0x28>
    39c2:	444c                	lw	a1,12(s0)
    39c4:	bfc9                	j	3996 <_fflush_r+0x28>
    39c6:	40f2                	lw	ra,28(sp)
    39c8:	4462                	lw	s0,24(sp)
    39ca:	4501                	li	a0,0
    39cc:	6105                	addi	sp,sp,32
    39ce:	8082                	ret
    39d0:	4501                	li	a0,0
    39d2:	8082                	ret

000039d4 <_lseek_r>:
    39d4:	1141                	addi	sp,sp,-16
    39d6:	c422                	sw	s0,8(sp)
    39d8:	842a                	mv	s0,a0
    39da:	852e                	mv	a0,a1
    39dc:	85b2                	mv	a1,a2
    39de:	8636                	mv	a2,a3
    39e0:	8201a823          	sw	zero,-2000(gp) # 200000b0 <errno>
    39e4:	c606                	sw	ra,12(sp)
    39e6:	2a7d                	jal	3ba4 <_lseek>
    39e8:	57fd                	li	a5,-1
    39ea:	00f51763          	bne	a0,a5,39f8 <_lseek_r+0x24>
    39ee:	83018793          	addi	a5,gp,-2000 # 200000b0 <errno>
    39f2:	439c                	lw	a5,0(a5)
    39f4:	c391                	beqz	a5,39f8 <_lseek_r+0x24>
    39f6:	c01c                	sw	a5,0(s0)
    39f8:	40b2                	lw	ra,12(sp)
    39fa:	4422                	lw	s0,8(sp)
    39fc:	0141                	addi	sp,sp,16
    39fe:	8082                	ret

00003a00 <__swhatbuf_r>:
    3a00:	7119                	addi	sp,sp,-128
    3a02:	daa6                	sw	s1,116(sp)
    3a04:	84ae                	mv	s1,a1
    3a06:	00e59583          	lh	a1,14(a1)
    3a0a:	dca2                	sw	s0,120(sp)
    3a0c:	de86                	sw	ra,124(sp)
    3a0e:	8432                	mv	s0,a2
    3a10:	0005db63          	bgez	a1,3a26 <__swhatbuf_r+0x26>
    3a14:	24de                	lhu	a5,12(s1)
    3a16:	0006a023          	sw	zero,0(a3)
    3a1a:	0807f793          	andi	a5,a5,128
    3a1e:	e39d                	bnez	a5,3a44 <__swhatbuf_r+0x44>
    3a20:	40000793          	li	a5,1024
    3a24:	a015                	j	3a48 <__swhatbuf_r+0x48>
    3a26:	0830                	addi	a2,sp,24
    3a28:	c636                	sw	a3,12(sp)
    3a2a:	2211                	jal	3b2e <_fstat_r>
    3a2c:	46b2                	lw	a3,12(sp)
    3a2e:	fe0543e3          	bltz	a0,3a14 <__swhatbuf_r+0x14>
    3a32:	4772                	lw	a4,28(sp)
    3a34:	67bd                	lui	a5,0xf
    3a36:	8ff9                	and	a5,a5,a4
    3a38:	7779                	lui	a4,0xffffe
    3a3a:	97ba                	add	a5,a5,a4
    3a3c:	0017b793          	seqz	a5,a5
    3a40:	c29c                	sw	a5,0(a3)
    3a42:	bff9                	j	3a20 <__swhatbuf_r+0x20>
    3a44:	04000793          	li	a5,64
    3a48:	c01c                	sw	a5,0(s0)
    3a4a:	50f6                	lw	ra,124(sp)
    3a4c:	5466                	lw	s0,120(sp)
    3a4e:	54d6                	lw	s1,116(sp)
    3a50:	4501                	li	a0,0
    3a52:	6109                	addi	sp,sp,128
    3a54:	8082                	ret

00003a56 <__smakebuf_r>:
    3a56:	25de                	lhu	a5,12(a1)
    3a58:	1101                	addi	sp,sp,-32
    3a5a:	cc22                	sw	s0,24(sp)
    3a5c:	ce06                	sw	ra,28(sp)
    3a5e:	ca26                	sw	s1,20(sp)
    3a60:	c84a                	sw	s2,16(sp)
    3a62:	8b89                	andi	a5,a5,2
    3a64:	842e                	mv	s0,a1
    3a66:	cf89                	beqz	a5,3a80 <__smakebuf_r+0x2a>
    3a68:	04740793          	addi	a5,s0,71
    3a6c:	c01c                	sw	a5,0(s0)
    3a6e:	c81c                	sw	a5,16(s0)
    3a70:	4785                	li	a5,1
    3a72:	c85c                	sw	a5,20(s0)
    3a74:	40f2                	lw	ra,28(sp)
    3a76:	4462                	lw	s0,24(sp)
    3a78:	44d2                	lw	s1,20(sp)
    3a7a:	4942                	lw	s2,16(sp)
    3a7c:	6105                	addi	sp,sp,32
    3a7e:	8082                	ret
    3a80:	0074                	addi	a3,sp,12
    3a82:	0030                	addi	a2,sp,8
    3a84:	84aa                	mv	s1,a0
    3a86:	3fad                	jal	3a00 <__swhatbuf_r>
    3a88:	45a2                	lw	a1,8(sp)
    3a8a:	892a                	mv	s2,a0
    3a8c:	8526                	mv	a0,s1
    3a8e:	b56ff0ef          	jal	ra,2de4 <_malloc_r>
    3a92:	e919                	bnez	a0,3aa8 <__smakebuf_r+0x52>
    3a94:	00c41783          	lh	a5,12(s0)
    3a98:	2007f713          	andi	a4,a5,512
    3a9c:	ff61                	bnez	a4,3a74 <__smakebuf_r+0x1e>
    3a9e:	9bf1                	andi	a5,a5,-4
    3aa0:	0027e793          	ori	a5,a5,2
    3aa4:	a45e                	sh	a5,12(s0)
    3aa6:	b7c9                	j	3a68 <__smakebuf_r+0x12>
    3aa8:	fffff797          	auipc	a5,0xfffff
    3aac:	0d878793          	addi	a5,a5,216 # 2b80 <_cleanup_r>
    3ab0:	d49c                	sw	a5,40(s1)
    3ab2:	245e                	lhu	a5,12(s0)
    3ab4:	c008                	sw	a0,0(s0)
    3ab6:	c808                	sw	a0,16(s0)
    3ab8:	0807e793          	ori	a5,a5,128
    3abc:	a45e                	sh	a5,12(s0)
    3abe:	47a2                	lw	a5,8(sp)
    3ac0:	c85c                	sw	a5,20(s0)
    3ac2:	47b2                	lw	a5,12(sp)
    3ac4:	cb99                	beqz	a5,3ada <__smakebuf_r+0x84>
    3ac6:	00e41583          	lh	a1,14(s0)
    3aca:	8526                	mv	a0,s1
    3acc:	2071                	jal	3b58 <_isatty_r>
    3ace:	c511                	beqz	a0,3ada <__smakebuf_r+0x84>
    3ad0:	245e                	lhu	a5,12(s0)
    3ad2:	9bf1                	andi	a5,a5,-4
    3ad4:	0017e793          	ori	a5,a5,1
    3ad8:	a45e                	sh	a5,12(s0)
    3ada:	245e                	lhu	a5,12(s0)
    3adc:	00f96933          	or	s2,s2,a5
    3ae0:	01241623          	sh	s2,12(s0)
    3ae4:	bf41                	j	3a74 <__smakebuf_r+0x1e>

00003ae6 <memchr>:
    3ae6:	0ff5f593          	andi	a1,a1,255
    3aea:	962a                	add	a2,a2,a0
    3aec:	00c51463          	bne	a0,a2,3af4 <memchr+0xe>
    3af0:	4501                	li	a0,0
    3af2:	8082                	ret
    3af4:	211c                	lbu	a5,0(a0)
    3af6:	feb78ee3          	beq	a5,a1,3af2 <memchr+0xc>
    3afa:	0505                	addi	a0,a0,1
    3afc:	bfc5                	j	3aec <memchr+0x6>

00003afe <__malloc_lock>:
    3afe:	8082                	ret

00003b00 <__malloc_unlock>:
    3b00:	8082                	ret

00003b02 <_read_r>:
    3b02:	1141                	addi	sp,sp,-16
    3b04:	c422                	sw	s0,8(sp)
    3b06:	842a                	mv	s0,a0
    3b08:	852e                	mv	a0,a1
    3b0a:	85b2                	mv	a1,a2
    3b0c:	8636                	mv	a2,a3
    3b0e:	8201a823          	sw	zero,-2000(gp) # 200000b0 <errno>
    3b12:	c606                	sw	ra,12(sp)
    3b14:	2871                	jal	3bb0 <_read>
    3b16:	57fd                	li	a5,-1
    3b18:	00f51763          	bne	a0,a5,3b26 <_read_r+0x24>
    3b1c:	83018793          	addi	a5,gp,-2000 # 200000b0 <errno>
    3b20:	439c                	lw	a5,0(a5)
    3b22:	c391                	beqz	a5,3b26 <_read_r+0x24>
    3b24:	c01c                	sw	a5,0(s0)
    3b26:	40b2                	lw	ra,12(sp)
    3b28:	4422                	lw	s0,8(sp)
    3b2a:	0141                	addi	sp,sp,16
    3b2c:	8082                	ret

00003b2e <_fstat_r>:
    3b2e:	1141                	addi	sp,sp,-16
    3b30:	c422                	sw	s0,8(sp)
    3b32:	842a                	mv	s0,a0
    3b34:	852e                	mv	a0,a1
    3b36:	85b2                	mv	a1,a2
    3b38:	8201a823          	sw	zero,-2000(gp) # 200000b0 <errno>
    3b3c:	c606                	sw	ra,12(sp)
    3b3e:	20b9                	jal	3b8c <_fstat>
    3b40:	57fd                	li	a5,-1
    3b42:	00f51763          	bne	a0,a5,3b50 <_fstat_r+0x22>
    3b46:	83018793          	addi	a5,gp,-2000 # 200000b0 <errno>
    3b4a:	439c                	lw	a5,0(a5)
    3b4c:	c391                	beqz	a5,3b50 <_fstat_r+0x22>
    3b4e:	c01c                	sw	a5,0(s0)
    3b50:	40b2                	lw	ra,12(sp)
    3b52:	4422                	lw	s0,8(sp)
    3b54:	0141                	addi	sp,sp,16
    3b56:	8082                	ret

00003b58 <_isatty_r>:
    3b58:	1141                	addi	sp,sp,-16
    3b5a:	c422                	sw	s0,8(sp)
    3b5c:	842a                	mv	s0,a0
    3b5e:	852e                	mv	a0,a1
    3b60:	8201a823          	sw	zero,-2000(gp) # 200000b0 <errno>
    3b64:	c606                	sw	ra,12(sp)
    3b66:	280d                	jal	3b98 <_isatty>
    3b68:	57fd                	li	a5,-1
    3b6a:	00f51763          	bne	a0,a5,3b78 <_isatty_r+0x20>
    3b6e:	83018793          	addi	a5,gp,-2000 # 200000b0 <errno>
    3b72:	439c                	lw	a5,0(a5)
    3b74:	c391                	beqz	a5,3b78 <_isatty_r+0x20>
    3b76:	c01c                	sw	a5,0(s0)
    3b78:	40b2                	lw	ra,12(sp)
    3b7a:	4422                	lw	s0,8(sp)
    3b7c:	0141                	addi	sp,sp,16
    3b7e:	8082                	ret

00003b80 <_close>:
    3b80:	05800793          	li	a5,88
    3b84:	82f1a823          	sw	a5,-2000(gp) # 200000b0 <errno>
    3b88:	557d                	li	a0,-1
    3b8a:	8082                	ret

00003b8c <_fstat>:
    3b8c:	05800793          	li	a5,88
    3b90:	82f1a823          	sw	a5,-2000(gp) # 200000b0 <errno>
    3b94:	557d                	li	a0,-1
    3b96:	8082                	ret

00003b98 <_isatty>:
    3b98:	05800793          	li	a5,88
    3b9c:	82f1a823          	sw	a5,-2000(gp) # 200000b0 <errno>
    3ba0:	4501                	li	a0,0
    3ba2:	8082                	ret

00003ba4 <_lseek>:
    3ba4:	05800793          	li	a5,88
    3ba8:	82f1a823          	sw	a5,-2000(gp) # 200000b0 <errno>
    3bac:	557d                	li	a0,-1
    3bae:	8082                	ret

00003bb0 <_read>:
    3bb0:	05800793          	li	a5,88
    3bb4:	82f1a823          	sw	a5,-2000(gp) # 200000b0 <errno>
    3bb8:	557d                	li	a0,-1
    3bba:	8082                	ret
    3bbc:	74737953          	0x74737953
    3bc0:	6d65                	lui	s10,0x19
    3bc2:	3a6b6c43          	fmadd.d	fs8,fs6,ft6,ft7,unknown
    3bc6:	6425                	lui	s0,0x9
    3bc8:	0a0d                	addi	s4,s4,3
    3bca:	0000                	unimp
    3bcc:	0000                	unimp
    3bce:	3f80                	lbu	s0,25(a5)
    3bd0:	0000                	unimp
    3bd2:	0000432b          	0x432b
    3bd6:	4220                	lw	s0,64(a2)
    3bd8:	d4ba                	sw	a4,104(sp)
    3bda:	ffff                	0xffff
    3bdc:	d3ac                	sw	a1,96(a5)
    3bde:	ffff                	0xffff
    3be0:	d3ac                	sw	a1,96(a5)
    3be2:	ffff                	0xffff
    3be4:	d3aa                	sw	a0,228(sp)
    3be6:	ffff                	0xffff
    3be8:	d3b2                	sw	a2,228(sp)
    3bea:	ffff                	0xffff
    3bec:	d3b2                	sw	a2,228(sp)
    3bee:	ffff                	0xffff
    3bf0:	d378                	sw	a4,100(a4)
    3bf2:	ffff                	0xffff
    3bf4:	d3aa                	sw	a0,228(sp)
    3bf6:	ffff                	0xffff
    3bf8:	d3b2                	sw	a2,228(sp)
    3bfa:	ffff                	0xffff
    3bfc:	d378                	sw	a4,100(a4)
    3bfe:	ffff                	0xffff
    3c00:	d3b2                	sw	a2,228(sp)
    3c02:	ffff                	0xffff
    3c04:	d3aa                	sw	a0,228(sp)
    3c06:	ffff                	0xffff
    3c08:	d4a6                	sw	s1,104(sp)
    3c0a:	ffff                	0xffff
    3c0c:	d4a6                	sw	s1,104(sp)
    3c0e:	ffff                	0xffff
    3c10:	d4a6                	sw	s1,104(sp)
    3c12:	ffff                	0xffff
    3c14:	d378                	sw	a4,100(a4)
    3c16:	ffff                	0xffff
    3c18:	e384                	fsw	fs1,0(a5)
    3c1a:	ffff                	0xffff
    3c1c:	e2aa                	fsw	fa0,68(sp)
    3c1e:	ffff                	0xffff
    3c20:	e37e                	fsw	ft11,132(sp)
    3c22:	ffff                	0xffff
    3c24:	e2b2                	fsw	fa2,68(sp)
    3c26:	ffff                	0xffff
    3c28:	e37e                	fsw	ft11,132(sp)
    3c2a:	ffff                	0xffff
    3c2c:	e278                	fsw	fa4,68(a2)
    3c2e:	ffff                	0xffff
    3c30:	e37e                	fsw	ft11,132(sp)
    3c32:	ffff                	0xffff
    3c34:	e2b2                	fsw	fa2,68(sp)
    3c36:	ffff                	0xffff
    3c38:	e2aa                	fsw	fa0,68(sp)
    3c3a:	ffff                	0xffff
    3c3c:	e2aa                	fsw	fa0,68(sp)
    3c3e:	ffff                	0xffff
    3c40:	e278                	fsw	fa4,68(a2)
    3c42:	ffff                	0xffff
    3c44:	e2b2                	fsw	fa2,68(sp)
    3c46:	ffff                	0xffff
    3c48:	e2b8                	fsw	fa4,64(a3)
    3c4a:	ffff                	0xffff
    3c4c:	e2b8                	fsw	fa4,64(a3)
    3c4e:	ffff                	0xffff
    3c50:	e2b8                	fsw	fa4,64(a3)
    3c52:	ffff                	0xffff
    3c54:	e278                	fsw	fa4,68(a2)
    3c56:	ffff                	0xffff
    3c58:	e26a                	fsw	fs10,4(sp)
    3c5a:	ffff                	0xffff
    3c5c:	e26a                	fsw	fs10,4(sp)
    3c5e:	ffff                	0xffff
    3c60:	e33e                	fsw	fa5,132(sp)
    3c62:	ffff                	0xffff
    3c64:	e41a                	fsw	ft6,8(sp)
    3c66:	ffff                	0xffff
    3c68:	e33e                	fsw	fa5,132(sp)
    3c6a:	ffff                	0xffff
    3c6c:	e238                	fsw	fa4,64(a2)
    3c6e:	ffff                	0xffff
    3c70:	e33e                	fsw	fa5,132(sp)
    3c72:	ffff                	0xffff
    3c74:	e41a                	fsw	ft6,8(sp)
    3c76:	ffff                	0xffff
    3c78:	e26a                	fsw	fs10,4(sp)
    3c7a:	ffff                	0xffff
    3c7c:	e26a                	fsw	fs10,4(sp)
    3c7e:	ffff                	0xffff
    3c80:	e238                	fsw	fa4,64(a2)
    3c82:	ffff                	0xffff
    3c84:	e41a                	fsw	ft6,8(sp)
    3c86:	ffff                	0xffff
    3c88:	e278                	fsw	fa4,68(a2)
    3c8a:	ffff                	0xffff
    3c8c:	e278                	fsw	fa4,68(a2)
    3c8e:	ffff                	0xffff
    3c90:	e278                	fsw	fa4,68(a2)
    3c92:	ffff                	0xffff
    3c94:	e238                	fsw	fa4,64(a2)
    3c96:	ffff                	0xffff
    3c98:	e60c                	fsw	fa1,8(a2)
    3c9a:	ffff                	0xffff
    3c9c:	e55a                	fsw	fs6,136(sp)
    3c9e:	ffff                	0xffff
    3ca0:	e55a                	fsw	fs6,136(sp)
    3ca2:	ffff                	0xffff
    3ca4:	e558                	fsw	fa4,12(a0)
    3ca6:	ffff                	0xffff
    3ca8:	e55e                	fsw	fs7,136(sp)
    3caa:	ffff                	0xffff
    3cac:	e55e                	fsw	fs7,136(sp)
    3cae:	ffff                	0xffff
    3cb0:	e52e                	fsw	fa1,136(sp)
    3cb2:	ffff                	0xffff
    3cb4:	e558                	fsw	fa4,12(a0)
    3cb6:	ffff                	0xffff
    3cb8:	e55e                	fsw	fs7,136(sp)
    3cba:	ffff                	0xffff
    3cbc:	e52e                	fsw	fa1,136(sp)
    3cbe:	ffff                	0xffff
    3cc0:	e55e                	fsw	fs7,136(sp)
    3cc2:	ffff                	0xffff
    3cc4:	e558                	fsw	fa4,12(a0)
    3cc6:	ffff                	0xffff
    3cc8:	e5fa                	fsw	ft10,200(sp)
    3cca:	ffff                	0xffff
    3ccc:	e5fa                	fsw	ft10,200(sp)
    3cce:	ffff                	0xffff
    3cd0:	e5fa                	fsw	ft10,200(sp)
    3cd2:	ffff                	0xffff
    3cd4:	e52e                	fsw	fa1,136(sp)
    3cd6:	ffff                	0xffff

00003cd8 <__clz_tab>:
    3cd8:	0100 0202 0303 0303 0404 0404 0404 0404     ................
    3ce8:	0505 0505 0505 0505 0505 0505 0505 0505     ................
    3cf8:	0606 0606 0606 0606 0606 0606 0606 0606     ................
    3d08:	0606 0606 0606 0606 0606 0606 0606 0606     ................
    3d18:	0707 0707 0707 0707 0707 0707 0707 0707     ................
    3d28:	0707 0707 0707 0707 0707 0707 0707 0707     ................
    3d38:	0707 0707 0707 0707 0707 0707 0707 0707     ................
    3d48:	0707 0707 0707 0707 0707 0707 0707 0707     ................
    3d58:	0808 0808 0808 0808 0808 0808 0808 0808     ................
    3d68:	0808 0808 0808 0808 0808 0808 0808 0808     ................
    3d78:	0808 0808 0808 0808 0808 0808 0808 0808     ................
    3d88:	0808 0808 0808 0808 0808 0808 0808 0808     ................
    3d98:	0808 0808 0808 0808 0808 0808 0808 0808     ................
    3da8:	0808 0808 0808 0808 0808 0808 0808 0808     ................
    3db8:	0808 0808 0808 0808 0808 0808 0808 0808     ................
    3dc8:	0808 0808 0808 0808 0808 0808 0808 0808     ................

00003dd8 <__sf_fake_stderr>:
	...

00003df8 <__sf_fake_stdin>:
	...

00003e18 <__sf_fake_stdout>:
	...
    3e38:	2d23 2b30 0020 0000 6c68 004c 6665 4567     #-0+ ...hlL.efgE
    3e48:	4746 0000 3130 3332 3534 3736 3938 4241     FG..0123456789AB
    3e58:	4443 4645 0000 0000 3130 3332 3534 3736     CDEF....01234567
    3e68:	3938 6261 6463 6665 0000 0000               89abcdef....
